(lp0
Vgag
p1
aVregularize
p2
aVbringing
p3
aVwooden
p4
aVwednesday
p5
aV0057
p6
aV270
p7
aV271
p8
aV272
p9
aV273
p10
aV274
p11
aV275
p12
aV276
p13
aV277
p14
aV279
p15
aVdesigning
p16
aVcontroversy
p17
aVprojection
p18
aVstern
p19
aVinsecurity
p20
aVviolently
p21
aVmorally
p22
aVwant
p23
aVewca
p24
aVtravel
p25
aVwrong
p26
aVsentencing
p27
aVconcurrence
p28
aVfit
p29
aVfix
p30
aVstriking
p31
aVdiscourse
p32
aVfin
p33
aVshivam
p34
aVbarton
p35
aVadapt
p36
aVnaupoto
p37
aVestimate
p38
aVdisturbed
p39
aVfifty
p40
aVmaster
p41
aVabrogation
p42
aVyield
p43
aVpositively
p44
aVahmed
p45
aVfeeling
p46
aV278
p47
aVhymen
p48
aV45th
p49
aVsimplify
p50
aVexcavator
p51
aVplate
p52
aValtogether
p53
aVpatch
p54
aVxvi
p55
aVextend
p56
aVnature
p57
aVextent
p58
aVlibyan
p59
aVmuch
p60
aVfry
p61
aVprofessionally
p62
aVhong
p63
aVremand
p64
aVperemptory
p65
aVacademic
p66
aVacademia
p67
aVcorporate
p68
aVgolden
p69
aVham
p70
aVhao
p71
aVhaa
p72
aVhac
p73
aVhad
p74
aVadvancement
p75
aVhar
p76
aVhas
p77
aVhat
p78
aVmunicipal
p79
aVmarsoof
p80
aVunequivocally
p81
aVindicative
p82
aVcrowd
p83
aVczech
p84
aVcrown
p85
aVfiduciary
p86
aVbottom
p87
aVinhuman
p88
aVmarshall
p89
aVfabric
p90
aVhopton
p91
aVpassenger
p92
aVdisgrace
p93
aVmirror
p94
aVcambodia
p95
aVturuturuvesi
p96
aVchain
p97
aVwhoever
p98
aVohchr
p99
aVchair
p100
aVunderlining
p101
aVoversight
p102
aVembark
p103
aVexact
p104
aVminute
p105
aVpatient
p106
aV301
p107
aVground
p108
aV302
p109
aV303
p110
aVhonour
p111
aV305
p112
aV306
p113
aVratio
p114
aVvateitei
p115
aVundergone
p116
aVopposed
p117
aVfollowing
p118
aVlitre
p119
aVkorolevu
p120
aVukhl
p121
aVdisconnect
p122
aVjim
p123
aVinstability
p124
aVquarter
p125
aVquartet
p126
aVhonduras
p127
aVirremediable
p128
aVentering
p129
aVseriously
p130
aVworkmanship
p131
aVmodest
p132
aVsnatch
p133
aVproactive
p134
aVturner
p135
aVborough
p136
aVjolame
p137
aVopposite
p138
aVvishwa
p139
aVinconsistent
p140
aVimagined
p141
aVtransact
p142
aVtranspire
p143
aVtiko
p144
aV832
p145
aV833
p146
aV830
p147
aVsponsorship
p148
aVworkplace
p149
aVallowance
p150
aVwest
p151
aVextant
p152
aVpretence
p153
aVtechnology
p154
aVassigns
p155
aVadvertisement
p156
aVpersistently
p157
aVbeing
p158
aVgenerator
p159
aVtraffic
p160
aVpreference
p161
aVsuperiority
p162
aVobstruct
p163
aVsatisfactory
p164
aVconventionally
p165
aVlaisiasa
p166
aVthailand
p167
aVresiduary
p168
aVglean
p169
aVsealed
p170
aVsocietal
p171
aVwith
p172
aVragg
p173
aVmonopoly
p174
aV0612865
p175
aVformulation
p176
aVcream
p177
aVindemnify
p178
aVmaliciously
p179
aVcaused
p180
aVnorm
p181
aV618
p182
aVinsufficiently
p183
aVsang
p184
aVsand
p185
aV199
p186
aV198
p187
aV195
p188
aV194
p189
aV197
p190
aV196
p191
aV191
p192
aV190
p193
aV193
p194
aV192
p195
aVaccreditation
p196
aVjurist
p197
aVcriminality
p198
aVperiodic
p199
aVvaniqi
p200
aVdepart
p201
aVsilva
p202
aVmore
p203
aVcompany
p204
aVlearn
p205
aVhuge
p206
aVdismissed
p207
aVnariva
p208
aVresemble
p209
aVtuivaga
p210
aVpaper
p211
aVscott
p212
aVbangle
p213
aVbypass
p214
aVisaac
p215
aVcolleague
p216
aVsusana
p217
aVappellants
p218
aVresearch
p219
aVoffline
p220
aVairway
p221
aVpreservation
p222
aVsaint
p223
aVstifle
p224
aVgetaway
p225
aVemirates
p226
aVseize
p227
aVwording
p228
aVaffix
p229
aVscarman
p230
aVindifference
p231
aVuncontested
p232
aVremedy
p233
aVcompass
p234
aVexercise
p235
aV319
p236
aV318
p237
aV313
p238
aV312
p239
aVaau0024
p240
aV310
p241
aV317
p242
aV316
p243
aV315
p244
aV314
p245
aVcollectively
p246
aV447
p247
aVvijendra
p248
aVbell
p249
aVadaptation
p250
aVbelt
p251
aVproprietor
p252
aVinitiation
p253
aVunarguable
p254
aVcounselling
p255
aV39
p256
aVawake
p257
aVbudget
p258
aVmishra
p259
aVbinding
p260
aVnaba
p261
aVabstention
p262
aVcouple
p263
aVnicholls
p264
aVprivately
p265
aVconcedes
p266
aVbehave
p267
aVtie
p268
aVinto
p269
aVdeponent
p270
aVinfluence
p271
aVrevision
p272
aVsuppression
p273
aVinterfaith
p274
aVrewa
p275
aVconservative
p276
aVcarelessly
p277
aV505
p278
aV591
p279
aV590
p280
aV593
p281
aV592
p282
aV595
p283
aV597
p284
aV596
p285
aV599
p286
aV598
p287
aVvideo
p288
aVvictor
p289
aVibid
p290
aVfifteen
p291
aVrohingya
p292
aVderby
p293
aVmaker
p294
aVinterrogatory
p295
aVdormitory
p296
aVconfidence
p297
aVcustomer
p298
aVscatter
p299
aVintelligent
p300
aVthigh
p301
aVinsight
p302
aVsubparagraph
p303
aVshortage
p304
aVwitness
p305
aVdurban
p306
aVembassy
p307
aVcould
p308
aVlegality
p309
aVtaniela
p310
aVkhans
p311
aVinterests
p312
aVenforcement
p313
aVstomach
p314
aVquarry
p315
aVculpability
p316
aVfalse
p317
aVkissun
p318
aVdepict
p319
aVatil
p320
aVmanoa
p321
aVmanoj
p322
aVplacement
p323
aVdependant
p324
aVtape
p325
aVriding
p326
aVnavutu
p327
aVundivided
p328
aVaer
p329
aVcirculation
p330
aVcomprising
p331
aVstuff
p332
aVframe
p333
aVreshmi
p334
aVdestine
p335
aVmohamed
p336
aVinterpolate
p337
aVindict
p338
aVmidland
p339
aVentitle
p340
aVcoherence
p341
aVmisguide
p342
aVconditioning
p343
aVjudicially
p344
aVgibbs
p345
aVcompleteness
p346
aVdiabetes
p347
aVoff
p348
aVoft
p349
aVrasaku
p350
aVcrack
p351
aVpractise
p352
aVfebruary
p353
aVcrux
p354
aVzimbabwe
p355
aVbecome
p356
aVunderwent
p357
aVrecognition
p358
aVpassion
p359
aVtuibua
p360
aVcultivates
p361
aVunfavourable
p362
aVinitially
p363
aVpetero
p364
aVevident
p365
aVproblem
p366
aVnonetheless
p367
aVdivert
p368
aVexposure
p369
aVcompete
p370
aVtenuous
p371
aVintegrity
p372
aVworth
p373
aVprogression
p374
aVbequeath
p375
aVjamaica
p376
aV587
p377
aVrangajeeva
p378
aVdiscrimination
p379
aVinequitable
p380
aVnemani
p381
aVascribe
p382
aVadamant
p383
aV1991
p384
aV1990
p385
aV1993
p386
aV1992
p387
aV1994
p388
aV1997
p389
aV1996
p390
aV1999
p391
aV1998
p392
aVera
p393
aVelbow
p394
aV1pm
p395
aVladder
p396
aVmemorial
p397
aVinnovative
p398
aVproduction
p399
aV758
p400
aVreasonably
p401
aVreasonable
p402
aVextrajudicial
p403
aVinadvertently
p404
aVdaniel
p405
aVforcible
p406
aVbarrier
p407
aVackner
p408
aVancient
p409
aVforcibly
p410
aVcertified
p411
aVanother
p412
aVillustrate
p413
aVguilt
p414
aVhistorical
p415
aVabu0057
p416
aVconvenient
p417
aVentrust
p418
aVbracket
p419
aVaunt
p420
aVswamy
p421
aVrepudiation
p422
aVlindon
p423
aVreserve
p424
aVroundabout
p425
aVbalaggan
p426
aVmarama
p427
aVcooperation
p428
aVdrawn
p429
aVrapporteur
p430
aVkitchen
p431
aVessentially
p432
aVuniformity
p433
aVtone
p434
aVtony
p435
aVgratitude
p436
aVhospitalization
p437
aVexcite
p438
aVapparently
p439
aVwhereby
p440
aV1600
p441
aVclient
p442
aVhumbly
p443
aVnewton
p444
aVthanks
p445
aVfirca
p446
aVsawmill
p447
aVsparse
p448
aVnight
p449
aVbukarau
p450
aVsadiq
p451
aVbeneficial
p452
aVobligate
p453
aVsovereign
p454
aVreproductive
p455
aVxiii
p456
aVevasive
p457
aVtest
p458
aVwalton
p459
aVconcept
p460
aVbattle
p461
aVtenable
p462
aVcunningham
p463
aVgun
p464
aVguy
p465
aVjurisdictional
p466
aVewhc
p467
aVvikash
p468
aVrapist
p469
aVforegoing
p470
aVcombatant
p471
aVteacher
p472
aV438
p473
aV439
p474
aV436
p475
aV437
p476
aV434
p477
aV435
p478
aV432
p479
aV433
p480
aV430
p481
aV431
p482
aVregardless
p483
aVextra
p484
aVuphill
p485
aVchip
p486
aVchin
p487
aVdiscussion
p488
aVdeteriorate
p489
aVescalate
p490
aVmultiplicand
p491
aVdrastic
p492
aVopportunity
p493
aVended
p494
aVstill
p495
aVmaxwell
p496
aVdyson
p497
aVcorrespondence
p498
aVchelsea
p499
aVqalinauci
p500
aVchallenged
p501
aVyear
p502
aVcontemplation
p503
aVgibson
p504
aVtransition
p505
aVfairclough
p506
aVromania
p507
aVtomorrow
p508
aVcaught
p509
aVtypographical
p510
aVraiwai
p511
aVextinguish
p512
aVunsubstantiated
p513
aVimportantly
p514
aVqoro
p515
aVpremachandra
p516
aVburst
p517
aVasesela
p518
aVamina
p519
aVexploit
p520
aVvagueness
p521
aVdevelop
p522
aVfood
p523
aVsquatter
p524
aVmaternity
p525
aVdeath
p526
aVdisproportionate
p527
aVearnest
p528
aVnausori
p529
aVoutput
p530
aVfalsehood
p531
aVverbal
p532
aVpursuance
p533
aVfractured
p534
aValbinism
p535
aVintervention
p536
aVunlawfulness
p537
aVsuliasi
p538
aVgaza
p539
aV605
p540
aV604
p541
aV607
p542
aV601
p543
aV600
p544
aV603
p545
aV602
p546
aV609
p547
aV608
p548
aVinfact
p549
aVpoor
p550
aVoverwhelmingly
p551
aVqueensland
p552
aVpool
p553
aVcorea
p554
aVoverseas
p555
aVunrest
p556
aVreligious
p557
aVpatently
p558
aVdecide
p559
aVbavou
p560
aVass
p561
aVaau0018
p562
aVtimeline
p563
aVbase
p564
aVadvertising
p565
aVput
p566
aVseventeenth
p567
aVsheikh
p568
aVcaption
p569
aVreject
p570
aVcompulsory
p571
aVcriticize
p572
aVanytime
p573
aVabsence
p574
aVevening
p575
aVcommodore
p576
aVheavy
p577
aVtranscribe
p578
aVreporting
p579
aVamerican
p580
aVtoward
p581
aV880
p582
aV887
p583
aVfootnote
p584
aV889
p585
aVapposite
p586
aVphenomenon
p587
aVratify
p588
aVboila
p589
aVcomfort
p590
aVhibiscus
p591
aVleague
p592
aV30am
p593
aVxxxvii
p594
aVaddress
p595
aVinadmissible
p596
aVempty
p597
aVrichter
p598
aVcommunal
p599
aVgrant
p600
aVvulnerable
p601
aVgrand
p602
aVcomposition
p603
aVobviously
p604
aVinformal
p605
aVshowing
p606
aVterminology
p607
aVsketch
p608
aVopposes
p609
aVactivist
p610
aVpapua
p611
aVsilence
p612
aVsalary
p613
aVwithholding
p614
aVordered
p615
aVapplication
p616
aVdepartment
p617
aVtestate
p618
aVbribe
p619
aVcompact
p620
aV667
p621
aVyourselves
p622
aVmauritania
p623
aVenforce
p624
aVjump
p625
aVnotwithstanding
p626
aVfifteenth
p627
aVforesee
p628
aVclark
p629
aVmanage
p630
aVestimated
p631
aVmeet
p632
aVcertainty
p633
aVsought
p634
aVronald
p635
aVprays
p636
aVinjuriously
p637
aVbin
p638
aVp10
p639
aVp11
p640
aVp12
p641
aVp13
p642
aVp16
p643
aVuniversity
p644
aVslide
p645
aVprevailing
p646
aVconstitute
p647
aVspecial
p648
aVundated
p649
aVdelegated
p650
aVtimes
p651
aVconfuse
p652
aVunsupported
p653
aVsuperannuation
p654
aVgainful
p655
aVenforced
p656
aVsheriff
p657
aVngo
p658
aVmaritime
p659
aVtobacco
p660
aVtaveuni
p661
aVtyre
p662
aVmainly
p663
aVdeterminative
p664
aVinterfere
p665
aVkey
p666
aVestimation
p667
aVtuesday
p668
aVcent
p669
aVimmense
p670
aVcontrolled
p671
aVretrospective
p672
aVcontroller
p673
aVdebtor
p674
aVemotional
p675
aVexaminer
p676
aVsurface
p677
aVexamined
p678
aVspeaker
p679
aVhttp
p680
aVtukana
p681
aV46
p682
aVincreasingly
p683
aVdistant
p684
aVdisappearance
p685
aVintersection
p686
aV56th
p687
aVglare
p688
aVnightclub
p689
aVaporosa
p690
aVpointless
p691
aVadditional
p692
aVmaintenance
p693
aV0in
p694
aVgain
p695
aVsabeto
p696
aVeducation
p697
aVparole
p698
aVsamsung
p699
aVindirectly
p700
aVconsists
p701
aVaud
p702
aVsorry
p703
aVsway
p704
aVcollaborate
p705
aVvoid
p706
aVvoir
p707
aVunrelated
p708
aVvuda
p709
aVmee
p710
aVmen
p711
aVmet
p712
aVmitchell
p713
aVcomplicated
p714
aVmobility
p715
aVobjectively
p716
aVnarayan
p717
aVrobertson
p718
aVneelta
p719
aVherein
p720
aVphraseology
p721
aVroom
p722
aVrood
p723
aVroof
p724
aVroot
p725
aVgordon
p726
aVloyalty
p727
aVthird
p728
aVfictitious
p729
aVpersonal
p730
aVpersonam
p731
aVcrew
p732
aVanil
p733
aVcombination
p734
aVmodification
p735
aVcumming
p736
aVwage
p737
aVsham
p738
aVtrading
p739
aVaids
p740
aVdebit
p741
aVabate
p742
aVvijay
p743
aVacquaint
p744
aV2am
p745
aVjeopardise
p746
aVrecommence
p747
aVmarie
p748
aVmaria
p749
aVzealand
p750
aVtroop
p751
aVtesting
p752
aVblameless
p753
aVuncertainty
p754
aVguaranteed
p755
aVaftermath
p756
aVaccustom
p757
aVasks
p758
aVentered
p759
aVharshness
p760
aVcane
p761
aVburundi
p762
aVcant
p763
aVevolve
p764
aVelli
p765
aV2009s
p766
aV2009l
p767
aVunconditionally
p768
aVfailing
p769
aVculturally
p770
aVassigned
p771
aVassignee
p772
aVpecuniary
p773
aVappellant
p774
aVinvoluntary
p775
aVdalituicama
p776
aVsupervisory
p777
aVdean
p778
aVdeal
p779
aVdead
p780
aVdear
p781
aVconfrontation
p782
aVafternoon
p783
aVautomatically
p784
aVdown
p785
aVnarration
p786
aVinitial
p787
aVeditor
p788
aVcreation
p789
aVanalyse
p790
aVanalyst
p791
aV08s
p792
aVwimalasena
p793
aV2500
p794
aV088
p795
aVfaction
p796
aVhandicap
p797
aV081
p798
aV080
p799
aV086
p800
aV084
p801
aVhappening
p802
aVredouble
p803
aVretention
p804
aVfather
p805
aVcivilization
p806
aVsovereignty
p807
aVaspx
p808
aVmeasurable
p809
aVsuspect
p810
aVprocessing
p811
aVdewan
p812
aVbox
p813
aVboy
p814
aVtabeusi
p815
aVbos
p816
aVbow
p817
aVteenage
p818
aVsample
p819
aVmembership
p820
aVtramway
p821
aVinexpedient
p822
aVpolice
p823
aVcaretaker
p824
aVpolicy
p825
aVtransparently
p826
aVlunch
p827
aVcontravenes
p828
aVensue
p829
aVteller
p830
aVconscientious
p831
aVassurance
p832
aVguston
p833
aVajay
p834
aVfrequent
p835
aVfirst
p836
aVaccountability
p837
aVspeaking
p838
aVodriscoll
p839
aVforeigner
p840
aVinterior
p841
aV200
p842
aV203
p843
aV202
p844
aV204
p845
aV207
p846
aV209
p847
aV208
p848
aVjonetani
p849
aVharvey
p850
aVsupposition
p851
aVthreshold
p852
aVstomp
p853
aVgee
p854
aVgen
p855
aVrequesting
p856
aVseat
p857
aVseal
p858
aVstigma
p859
aVwonder
p860
aVlabel
p861
aVacross
p862
aV2011l
p863
aVinfrastructure
p864
aVaugust
p865
aV2011s
p866
aVtour
p867
aVcapable
p868
aVderogation
p869
aVwake
p870
aVinvestigating
p871
aVextended
p872
aVovercrowding
p873
aVnands
p874
aVvakarauvanua
p875
aVidentifying
p876
aVpronounce
p877
aVaffiliate
p878
aVeach
p879
aVpurported
p880
aVcorrectional
p881
aVjerusalem
p882
aVcav0009
p883
aVexamine
p884
aVcasualty
p885
aVequitably
p886
aV489
p887
aV488
p888
aV487
p889
aV486
p890
aV485
p891
aV484
p892
aV483
p893
aV482
p894
aV481
p895
aV480
p896
aVdefine
p897
aVzero
p898
aV5000
p899
aVsoon
p900
aVspecialize
p901
aVafrica
p902
aVhour
p903
aVrecall
p904
aVremain
p905
aVcollision
p906
aVminimum
p907
aVneeds
p908
aVdemolition
p909
aVmislead
p910
aVunderscore
p911
aVlaisa
p912
aVcompound
p913
aVimpliedly
p914
aVrestrict
p915
aVevade
p916
aVperry
p917
aVlouver
p918
aVsickness
p919
aVevaluation
p920
aVextraordinary
p921
aVsanaila
p922
aVindebted
p923
aVwelcome
p924
aVtow
p925
aVstereotyping
p926
aVdickson
p927
aVjetty
p928
aVdifferentiate
p929
aVswerve
p930
aVconfessional
p931
aVurban
p932
aVnawana
p933
aVbreadwinner
p934
aVchart
p935
aVassoc
p936
aVservices
p937
aVjudiciously
p938
aVvilikesa
p939
aVpremise
p940
aVpushpa
p941
aVforeign
p942
aVpoint
p943
aVexpensive
p944
aVfaithfully
p945
aVassorted
p946
aVwaqanivalu
p947
aVpolitician
p948
aVlitia
p949
aVportugal
p950
aVcentury
p951
aVsetareki
p952
aVwithdraw
p953
aV1967
p954
aV1961
p955
aV1962
p956
aVtimber
p957
aVroskill
p958
aV1wlr
p959
aVmanipulate
p960
aVnapolioni
p961
aVbsp
p962
aVretailer
p963
aVakuila
p964
aVunderlined
p965
aVconstant
p966
aVcure
p967
aVcurb
p968
aVconfine
p969
aVbenchmark
p970
aVcater
p971
aVutterly
p972
aVunenforceable
p973
aVimplies
p974
aVimplied
p975
aVhereto
p976
aVentire
p977
aVradio
p978
aVsosefo
p979
aVbasic
p980
aVhealing
p981
aVprincipally
p982
aVimplement
p983
aVsikeli
p984
aVtotality
p985
aVannounce
p986
aVfan
p987
aVclosing
p988
aVdidnt
p989
aVfetch
p990
aVvaried
p991
aVvaries
p992
aVprofile
p993
aVguatemala
p994
aVsubsequently
p995
aVblatant
p996
aVrabo
p997
aVjovesa
p998
aVsexual
p999
aVfourteen
p1000
aVsack
p1001
aVacquiescence
p1002
aVdetection
p1003
aVsweden
p1004
aVuganda
p1005
aVtomasi
p1006
aVprisoner
p1007
aVpayment
p1008
aVdisease
p1009
aVoccasion
p1010
aVcontemptuous
p1011
aVincapacitate
p1012
aVdemurrer
p1013
aVknowledge
p1014
aVapproach
p1015
aVdirty
p1016
aVblake
p1017
aVarmenia
p1018
aVjoke
p1019
aVkumararatnam
p1020
aVdisarmament
p1021
aVcoexistence
p1022
aVamenity
p1023
aVpowell
p1024
aVstorey
p1025
aVinterim
p1026
aVgriffith
p1027
aVdemographic
p1028
aVdoyle
p1029
aVlike
p1030
aVsuccess
p1031
aVadmitted
p1032
aVhair
p1033
aVrecommendation
p1034
aVmitigate
p1035
aVdiscretion
p1036
aVmode
p1037
aVmultisectoral
p1038
aVlieutenant
p1039
aVinasmuch
p1040
aVdevelopment
p1041
aVinsurer
p1042
aVcoke
p1043
aVdetail
p1044
aVdetain
p1045
aVjoinder
p1046
aV345
p1047
aV346
p1048
aV340
p1049
aV341
p1050
aVaau0093
p1051
aVvatuwaqa
p1052
aVsinghs
p1053
aVdirect
p1054
aVnair
p1055
aVnail
p1056
aVliberty
p1057
aVxvii
p1058
aVpratt
p1059
aVluggage
p1060
aVwaiyavi
p1061
aVfreedom
p1062
aVcentre
p1063
aVexcellent
p1064
aVsalvage
p1065
aVestate
p1066
aVattract
p1067
aVceremony
p1068
aVkeen
p1069
aVenquiry
p1070
aVenquire
p1071
aVfinalise
p1072
aVdescription
p1073
aVinsecure
p1074
aVparallel
p1075
aVprovisionally
p1076
aVqarase
p1077
aVsumming
p1078
aVcrystallize
p1079
aVvitogo
p1080
aVindependence
p1081
aVassociate
p1082
aVreinstatement
p1083
aVdaya
p1084
aVencouraging
p1085
aVattack
p1086
aVfiction
p1087
aVincur
p1088
aVgovind
p1089
aVfrankly
p1090
aVmarking
p1091
aVbridge
p1092
aVseminar
p1093
aVparliamentarian
p1094
aVthorough
p1095
aVsawmilling
p1096
aVsorby
p1097
aV542
p1098
aV540
p1099
aV541
p1100
aV546
p1101
aV547
p1102
aV544
p1103
aV548
p1104
aV549
p1105
aVborrower
p1106
aVben
p1107
aVhaiti
p1108
aVmua
p1109
aVfinger
p1110
aVhopefully
p1111
aVmum
p1112
aVreiterate
p1113
aVinstitution
p1114
aVyalalevu
p1115
aVdeposes
p1116
aVfault
p1117
aVexpense
p1118
aVbeneficiary
p1119
aVapprehension
p1120
aVnaicker
p1121
aVpathology
p1122
aVbeside
p1123
aVketeca
p1124
aVcommonsense
p1125
aVnatabua
p1126
aVshortly
p1127
aVunemployment
p1128
aVtuitoga
p1129
aV58
p1130
aVbrutality
p1131
aV51
p1132
aVexcerpt
p1133
aVselectivity
p1134
aVelection
p1135
aV52
p1136
aVduke
p1137
aVeject
p1138
aVmalaysia
p1139
aVmainstreaming
p1140
aVerosion
p1141
aVkerosene
p1142
aVpicture
p1143
aVfootball
p1144
aVrakai
p1145
aV1800
p1146
aVvigorously
p1147
aVunchallenged
p1148
aVrom
p1149
aVrob
p1150
aVroy
p1151
aVrow
p1152
aVtrend
p1153
aVmehboob
p1154
aVdisappeared
p1155
aVproblematic
p1156
aVcrisis
p1157
aVprem
p1158
aVvariously
p1159
aVtradewinds
p1160
aVtoday
p1161
aVcasey
p1162
aVfigure
p1163
aVmismanagement
p1164
aVfourth
p1165
aVeighty
p1166
aVinforms
p1167
aVeighth
p1168
aVombudsman
p1169
aV123
p1170
aV125
p1171
aV126
p1172
aVplatform
p1173
aVfarmer
p1174
aVtorch
p1175
aVconcur
p1176
aVbulivou
p1177
aVeagle
p1178
aVbrett
p1179
aVcurable
p1180
aV554
p1181
aVafterthought
p1182
aVsuspense
p1183
aVbenin
p1184
aVannul
p1185
aVdrastically
p1186
aVcheat
p1187
aVcheap
p1188
aVcavuilagi
p1189
aVhettige
p1190
aV1920
p1191
aV1921
p1192
aV1923
p1193
aV1924
p1194
aV1925
p1195
aV1926
p1196
aV1927
p1197
aV1928
p1198
aV1929
p1199
aVpunja
p1200
aV2002s
p1201
aVwoolf
p1202
aVforeshadow
p1203
aVlibya
p1204
aVquiet
p1205
aVperiod
p1206
aVinsist
p1207
aVapproval
p1208
aVprecious
p1209
aVturkey
p1210
aVconsultancy
p1211
aV550
p1212
aVdirection
p1213
aVnilesh
p1214
aVcase
p1215
aVcash
p1216
aVscuffle
p1217
aVcast
p1218
aVirrespective
p1219
aV436ce
p1220
aVparticipant
p1221
aVauthor
p1222
aVinjurious
p1223
aVstatus
p1224
aVstatue
p1225
aVcatchword
p1226
aVjustify
p1227
aVcease
p1228
aVkirby
p1229
aVacute
p1230
aVtowel
p1231
aVpatrick
p1232
aVdenny
p1233
aVaust
p1234
aVcripple
p1235
aVrepatriation
p1236
aVfelix
p1237
aVdeserve
p1238
aVimmunity
p1239
aVdeviation
p1240
aVchandrika
p1241
aVdirectory
p1242
aVbatiratu
p1243
aVapartment
p1244
aVinfringement
p1245
aVsue
p1246
aVsub
p1247
aVsun
p1248
aVsum
p1249
aVsup
p1250
aVnabua
p1251
aVquasi
p1252
aVquash
p1253
aVisrael
p1254
aVgopal
p1255
aVcaveat
p1256
aVoccasionally
p1257
aVdelaney
p1258
aVpretext
p1259
aV2012s
p1260
aVshashi
p1261
aVsoccer
p1262
aVsomebody
p1263
aV15am
p1264
aVlewaravu
p1265
aVintolerable
p1266
aVdisquiet
p1267
aVhill
p1268
aVprejudice
p1269
aVstory
p1270
aVleading
p1271
aVstorm
p1272
aVstore
p1273
aVuphold
p1274
aVking
p1275
aVkini
p1276
aVmotivation
p1277
aVchandar
p1278
aVtacirua
p1279
aVentirety
p1280
aVrepossession
p1281
aVlying
p1282
aVinflexible
p1283
aVsheppard
p1284
aVaccurate
p1285
aVinvoke
p1286
aVreprint
p1287
aV14th
p1288
aVforego
p1289
aVsolo
p1290
aVsole
p1291
aVoversee
p1292
aVdistress
p1293
aVflight
p1294
aValgeria
p1295
aVprecision
p1296
aVindefinitely
p1297
aVshirt
p1298
aVhigher
p1299
aVrestraint
p1300
aV262
p1301
aVhistoric
p1302
aVmachinery
p1303
aV265
p1304
aVracially
p1305
aVpatel
p1306
aVspeedily
p1307
aVdiscriminatory
p1308
aVseparately
p1309
aVconstitutionality
p1310
aVrefused
p1311
aVlavenia
p1312
aVplaza
p1313
aVincommunicado
p1314
aVacquiesce
p1315
aVlong
p1316
aVwaqainabete
p1317
aVcoordinator
p1318
aVkamal
p1319
aVmeaning
p1320
aVpuncture
p1321
aVdispel
p1322
aVxxiv
p1323
aVinclude
p1324
aVconcluded
p1325
aVmalice
p1326
aVchose
p1327
aVexplore
p1328
aVsuggests
p1329
aVegypt
p1330
aVhardy
p1331
aVmisrepresentation
p1332
aVnexus
p1333
aVaccrues
p1334
aVaccrued
p1335
aVwhilst
p1336
aVinterpreter
p1337
aVsuperior
p1338
aVh2
p1339
aVseeto
p1340
aVsuccessor
p1341
aVedit
p1342
aVchaos
p1343
aVhonorable
p1344
aVhence
p1345
aVeleventh
p1346
aVrafiq
p1347
aVunknown
p1348
aVaccountant
p1349
aV656
p1350
aV654
p1351
aV655
p1352
aV652
p1353
aV653
p1354
aV651
p1355
aV311
p1356
aVhr
p1357
aVwho
p1358
aVwhy
p1359
aVpipe
p1360
aV30pm
p1361
aVutter
p1362
aVpleased
p1363
aVlitigation
p1364
aVcuba
p1365
aVmarried
p1366
aVjuror
p1367
aVkindergarten
p1368
aVreginam
p1369
aVjoy
p1370
aVjob
p1371
aVjoe
p1372
aVapril
p1373
aVrodney
p1374
aVgrounds
p1375
aVtunisia
p1376
aVsecond
p1377
aVdecent
p1378
aVarbitrator
p1379
aVconfers
p1380
aVunworkable
p1381
aVmataqalis
p1382
aVdisagree
p1383
aVnadan
p1384
aVheavily
p1385
aVusage
p1386
aVterm
p1387
aVassert
p1388
aVdisposing
p1389
aVparity
p1390
aVexceed
p1391
aVreceivership
p1392
aVrare
p1393
aVcarrier
p1394
aVoutset
p1395
aVlawful
p1396
aVailment
p1397
aVextravagant
p1398
aVvolume
p1399
aVhorrific
p1400
aVpravin
p1401
aVconclusion
p1402
aVsasr
p1403
aVdenomination
p1404
aVyellow
p1405
aVregional
p1406
aVmiller
p1407
aVincreasing
p1408
aVavert
p1409
aVavery
p1410
aVimpartiality
p1411
aVtelegraph
p1412
aVsuccessful
p1413
aVofficio
p1414
aVhurt
p1415
aVhousehold
p1416
aVsheela
p1417
aVrescue
p1418
aVpreferably
p1419
aVcomplaining
p1420
aVdamage
p1421
aVmachine
p1422
aVmethodology
p1423
aVpreferable
p1424
aVmarginalize
p1425
aVwing
p1426
aVwind
p1427
aVwine
p1428
aVrestriction
p1429
aVhandcuff
p1430
aVarrestable
p1431
aVenrich
p1432
aVcommemorate
p1433
aVtenancy
p1434
aVsilver
p1435
aVrumour
p1436
aVfinancial
p1437
aVfortnight
p1438
aVameliorate
p1439
aVrented
p1440
aVnecessarily
p1441
aVups
p1442
aVsahu
p1443
aVclothes
p1444
aV179
p1445
aV178
p1446
aV177
p1447
aV176
p1448
aV174
p1449
aV173
p1450
aV172
p1451
aV171
p1452
aV170
p1453
aVengagement
p1454
aVpostulate
p1455
aVlegs
p1456
aVcollapse
p1457
aVwisdom
p1458
aVendure
p1459
aVsuren
p1460
aVresponsible
p1461
aVcausing
p1462
aVresponsibly
p1463
aVaffirmation
p1464
aVmorality
p1465
aVprofessor
p1466
aVadvisory
p1467
aVbomb
p1468
aVgauge
p1469
aVhungary
p1470
aVcopy
p1471
aVmens
p1472
aVtheme
p1473
aVspecify
p1474
aVkorovou
p1475
aVreversal
p1476
aVtraverse
p1477
aVleasing
p1478
aVcoleridge
p1479
aVbest
p1480
aVonto
p1481
aVscore
p1482
aVconceptual
p1483
aVpreserve
p1484
aVfelony
p1485
aVcarbon
p1486
aVoath
p1487
aVestates
p1488
aVirresponsible
p1489
aVextraction
p1490
aVinterpret
p1491
aVincompetent
p1492
aVlife
p1493
aVlift
p1494
aVchile
p1495
aVchild
p1496
aVtagivakatini
p1497
aVsubpoena
p1498
aVintelligence
p1499
aVplight
p1500
aVcaregiver
p1501
aVfracture
p1502
aVbirth
p1503
aVvimal
p1504
aVenergy
p1505
aVobtain
p1506
aVresile
p1507
aVdegei
p1508
aVhappy
p1509
aVconclusively
p1510
aVjuvenile
p1511
aVliberal
p1512
aVkasim
p1513
aVexist
p1514
aVaccounting
p1515
aVrepublic
p1516
aVexpose
p1517
aVpersecution
p1518
aVnovelty
p1519
aVkumar
p1520
aVrefinance
p1521
aVrights
p1522
aVsuggestive
p1523
aVcurrent
p1524
aVabscond
p1525
aVlepani
p1526
aVlatchmi
p1527
aVwherever
p1528
aVcommonly
p1529
aVtherein
p1530
aVdoubtabout
p1531
aVindo
p1532
aVremorseful
p1533
aVafford
p1534
aVapparent
p1535
aVbehalf
p1536
aVramesh
p1537
aVwinter
p1538
aVparameter
p1539
aVdatt
p1540
aVrehabilitate
p1541
aVdate
p1542
aVdata
p1543
aVapplicant
p1544
aVunacceptable
p1545
aVthomson
p1546
aVsolitary
p1547
aVrevert
p1548
aVwhosoever
p1549
aVrevised
p1550
aVcanvas
p1551
aVjoinery
p1552
aVmillion
p1553
aVgoverning
p1554
aVresignation
p1555
aVvote
p1556
aVrival
p1557
aVfuture
p1558
aVprospect
p1559
aVtake
p1560
aVaxe
p1561
aVsurplus
p1562
aVclearest
p1563
aVliable
p1564
aVsurgery
p1565
aVdiver
p1566
aVsupermarket
p1567
aVloudly
p1568
aVexpression
p1569
aVmccaig
p1570
aVtwin
p1571
aVanti
p1572
aVante
p1573
aVfj
p1574
aVbuksh
p1575
aVbreath
p1576
aVcombined
p1577
aVchan
p1578
aVdavendra
p1579
aVshanti
p1580
aVbros
p1581
aVallocation
p1582
aVcosta
p1583
aVsuvavou
p1584
aVcosts
p1585
aVdutt
p1586
aVclan
p1587
aV63
p1588
aV65
p1589
aV67
p1590
aVtobago
p1591
aVsituate
p1592
aVunsuccessfully
p1593
aVcontingent
p1594
aVusha
p1595
aVact
p1596
aVparties
p1597
aVnacanieli
p1598
aV508
p1599
aV502
p1600
aVaccuseds
p1601
aV500
p1602
aVseverally
p1603
aVagree
p1604
aVdetailed
p1605
aVac
p1606
aVad
p1607
aVag
p1608
aVah
p1609
aVak
p1610
aVal
p1611
aVan
p1612
aVap
p1613
aVas
p1614
aVau
p1615
aVannex
p1616
aVa1
p1617
aVa2
p1618
aVcpl
p1619
aVcpc
p1620
aVcpd
p1621
aVismail
p1622
aVupkeep
p1623
aVfairness
p1624
aVmccarthy
p1625
aVreasoning
p1626
aVdressing
p1627
aVghana
p1628
aVtugalala
p1629
aVantibiotic
p1630
aVcompliance
p1631
aVwarrant
p1632
aVdiscrepancy
p1633
aVnagin
p1634
aVstated
p1635
aVaccept
p1636
aV04th
p1637
aVearnings
p1638
aVtelegraphic
p1639
aVupto
p1640
aVbarnard
p1641
aVpant
p1642
aVhtml
p1643
aVexorbitant
p1644
aVpersona
p1645
aVministerial
p1646
aVnetani
p1647
aVpaucity
p1648
aVimagine
p1649
aVstatutory
p1650
aVinstigation
p1651
aVthereafter
p1652
aV975
p1653
aVrelationship
p1654
aVimmediate
p1655
aVmishap
p1656
aVconsult
p1657
aV97s
p1658
aVvakararawa
p1659
aVwaisale
p1660
aVanalogy
p1661
aVunequal
p1662
aVcover
p1663
aVexp
p1664
aVobscure
p1665
aVset
p1666
aVseq
p1667
aVoverwhelm
p1668
aVsex
p1669
aVsee
p1670
aVsed
p1671
aVsec
p1672
aVmigration
p1673
aVsea
p1674
aVsen
p1675
aVespouse
p1676
aVhansard
p1677
aVelectrician
p1678
aVdrunk
p1679
aVcommunity
p1680
aVhollow
p1681
aVagents
p1682
aVworthless
p1683
aVwheeler
p1684
aVfund
p1685
aVjudicial
p1686
aVowen
p1687
aVowes
p1688
aVaudi
p1689
aVsurvey
p1690
aVinflation
p1691
aVcomprise
p1692
aVabu0034
p1693
aVabu0038
p1694
aVrelevance
p1695
aVtire
p1696
aVnissan
p1697
aVamicably
p1698
aVsight
p1699
aVamicable
p1700
aVsanta
p1701
aVanything
p1702
aVseremaia
p1703
aVintegral
p1704
aVguideline
p1705
aVbargaining
p1706
aVoccupy
p1707
aVpastor
p1708
aVmature
p1709
aVsupervisor
p1710
aVnakasi
p1711
aVpreventing
p1712
aVsummit
p1713
aVwalker
p1714
aVvisitor
p1715
aVsens
p1716
aVsent
p1717
aVgarden
p1718
aVrecognizance
p1719
aVindex
p1720
aVlaxity
p1721
aVmara
p1722
aVinternationally
p1723
aVlodgment
p1724
aVsharply
p1725
aVjeet
p1726
aVhigh
p1727
aVefficiently
p1728
aVoperative
p1729
aVcomply
p1730
aVlidise
p1731
aVkiss
p1732
aVinstallment
p1733
aVmerge
p1734
aVjosateki
p1735
aVagriculture
p1736
aV458
p1737
aV459
p1738
aV450
p1739
aV452
p1740
aV453
p1741
aV454
p1742
aV455
p1743
aVowned
p1744
aV457
p1745
aVowner
p1746
aVlegislative
p1747
aVpainful
p1748
aVsteel
p1749
aVtorrens
p1750
aVsteer
p1751
aVmuir
p1752
aVclearly
p1753
aVcompetency
p1754
aVdocuments
p1755
aVmechanism
p1756
aVcompetence
p1757
aVasylum
p1758
aVhope
p1759
aVnisi
p1760
aVlala
p1761
aVvasiti
p1762
aVedition
p1763
aVincurable
p1764
aVlyon
p1765
aVinjustice
p1766
aVemail
p1767
aVpronged
p1768
aValifereti
p1769
aVdrum
p1770
aVdrug
p1771
aVcj
p1772
aVch
p1773
aVco
p1774
aVcn
p1775
aVcm
p1776
aVcl
p1777
aVauthorised
p1778
aVca
p1779
aVcf
p1780
aVcd
p1781
aVcr
p1782
aVallocated
p1783
aVcp
p1784
aVct
p1785
aVexpiration
p1786
aVdelaying
p1787
aVsangeeta
p1788
aVencompass
p1789
aVhubbard
p1790
aVbishop
p1791
aVball
p1792
aVcolumbia
p1793
aVbali
p1794
aVbale
p1795
aVbald
p1796
aVbala
p1797
aVcolour
p1798
aVgenerous
p1799
aVhygiene
p1800
aVforeseeable
p1801
aVfootage
p1802
aVballot
p1803
aValliance
p1804
aVdaveta
p1805
aVhousing
p1806
aVbump
p1807
aVfunction
p1808
aVdelivery
p1809
aVofficial
p1810
aVilisoni
p1811
aVbearing
p1812
aVdissemination
p1813
aVdenote
p1814
aVpromulgation
p1815
aVhpp
p1816
aVoppression
p1817
aVmatrix
p1818
aVpension
p1819
aVvalebasoga
p1820
aVconsolidated
p1821
aVall
p1822
aVali
p1823
aVpartys
p1824
aVptc
p1825
aVblanket
p1826
aVdistort
p1827
aVaminiasi
p1828
aVestablished
p1829
aVnear
p1830
aVestablishes
p1831
aVpursuit
p1832
aVcelebration
p1833
aVemployees
p1834
aVvinesh
p1835
aVsmoke
p1836
aVsecure
p1837
aVthursday
p1838
aVpalestinian
p1839
aVip
p1840
aVlorry
p1841
aVit
p1842
aVtariff
p1843
aVindifferent
p1844
aVlakshika
p1845
aVclaimant
p1846
aVmayor
p1847
aVfragment
p1848
aVkorovata
p1849
aVforth
p1850
aVordering
p1851
aVtruthfulness
p1852
aVlouvre
p1853
aVprotracted
p1854
aV03rd
p1855
aV40th
p1856
aVdamaging
p1857
aVmitigatory
p1858
aVvigorous
p1859
aVrome
p1860
aVmaopa
p1861
aVnotion
p1862
aVitltb
p1863
aVmake
p1864
aVguidance
p1865
aVsporting
p1866
aVpredecessor
p1867
aVmisdirect
p1868
aVgentleman
p1869
aVnegotiation
p1870
aVdefray
p1871
aVcoherent
p1872
aVphysician
p1873
aVconfirmed
p1874
aVraid
p1875
aVrail
p1876
aVrain
p1877
aVkept
p1878
aVscenario
p1879
aVkepa
p1880
aVencounter
p1881
aVmonaco
p1882
aVpresiding
p1883
aVrepose
p1884
aV27th
p1885
aVrescission
p1886
aVspread
p1887
aVarab
p1888
aVdisadvantage
p1889
aVfurnish
p1890
aVtheirs
p1891
aVwww
p1892
aVbalanced
p1893
aVsuruj
p1894
aVliquidated
p1895
aVsheik
p1896
aVcrop
p1897
aVsilatolu
p1898
aVinvoice
p1899
aVinclusive
p1900
aVsubsist
p1901
aVjona
p1902
aVjone
p1903
aVunwilling
p1904
aVundisturbed
p1905
aVaffidavit
p1906
aVtogether
p1907
aVreception
p1908
aVapenisa
p1909
aVglobal
p1910
aVzone
p1911
aVflash
p1912
aVpermanently
p1913
aVprotective
p1914
aVfragile
p1915
aVrepetitive
p1916
aVsupporting
p1917
aVunfairness
p1918
aVchange
p1919
aVtrial
p1920
aVkemp
p1921
aVretired
p1922
aVlending
p1923
aVcommittal
p1924
aVmobil
p1925
aVjan
p1926
aVbury
p1927
aVlive
p1928
aVerca
p1929
aVmisconception
p1930
aVnatasha
p1931
aVsupremacy
p1932
aVjosua
p1933
aVpenetrative
p1934
aVosborne
p1935
aVremember
p1936
aVforeclosure
p1937
aVnerve
p1938
aVcolo
p1939
aVcold
p1940
aVcole
p1941
aVmosese
p1942
aVethic
p1943
aVwindow
p1944
aVhalt
p1945
aVintellectual
p1946
aVhalf
p1947
aVhall
p1948
aVel
p1949
aVen
p1950
aVei
p1951
aVed
p1952
aVeg
p1953
aVcbv0002
p1954
aVex
p1955
aVeu
p1956
aVeq
p1957
aVes
p1958
aVer
p1959
aVopened
p1960
aVspace
p1961
aVhastily
p1962
aV610
p1963
aV611
p1964
aVtaxed
p1965
aVimpossible
p1966
aVsheer
p1967
aVsheet
p1968
aVsilent
p1969
aVcourier
p1970
aVcorrection
p1971
aVbreakfast
p1972
aV000000
p1973
aVambika
p1974
aVseldom
p1975
aVbulgaria
p1976
aVunmarried
p1977
aVascertainment
p1978
aVstyle
p1979
aVcalanchini
p1980
aVdispatch
p1981
aVmoreover
p1982
aVrebuild
p1983
aVamani
p1984
aVyunus
p1985
aVbias
p1986
aVembrace
p1987
aVkenya
p1988
aVship
p1989
aVadelaide
p1990
aVfinish
p1991
aVtradition
p1992
aVicpped
p1993
aVtouch
p1994
aVreal
p1995
aVread
p1996
aVdetract
p1997
aVreap
p1998
aVrear
p1999
aVuppercase
p2000
aVdinesh
p2001
aVduration
p2002
aVrecorded
p2003
aVrecorder
p2004
aVfels
p2005
aVfell
p2006
aVgreatly
p2007
aVprepare
p2008
aVirreversible
p2009
aVnasese
p2010
aVlimine
p2011
aVdominican
p2012
aVsubdue
p2013
aVcredibility
p2014
aVstorage
p2015
aVsuresh
p2016
aVconfidential
p2017
aVvery
p2018
aVvere
p2019
aVminded
p2020
aVwitnesses
p2021
aVrepugnant
p2022
aVnavosa
p2023
aVahead
p2024
aVsoldier
p2025
aVdivison
p2026
aVinjure
p2027
aVinjury
p2028
aVerode
p2029
aVmoala
p2030
aVexclude
p2031
aVmurti
p2032
aVinconceivable
p2033
aVovernight
p2034
aVumesh
p2035
aVfruitful
p2036
aVfool
p2037
aVawarding
p2038
aVfoot
p2039
aVjanaka
p2040
aVreferred
p2041
aVsince
p2042
aVasp
p2043
aVprobability
p2044
aV1876
p2045
aV1877
p2046
aV1874
p2047
aV1875
p2048
aV1872
p2049
aV1873
p2050
aV1870
p2051
aV1878
p2052
aV1879
p2053
aVobtainable
p2054
aVcondemns
p2055
aVrecovered
p2056
aVlabour
p2057
aVrhc
p2058
aVcopyright
p2059
aVpretty
p2060
aVcustodian
p2061
aVcustodial
p2062
aVmaurice
p2063
aVharman
p2064
aVprnz
p2065
aVanor
p2066
aVbattery
p2067
aVdescribed
p2068
aVdescribes
p2069
aVpreventable
p2070
aVelse
p2071
aVanthony
p2072
aVutmost
p2073
aVgovernor
p2074
aVshaw
p2075
aVwailoku
p2076
aVshah
p2077
aVused
p2078
aVtemporary
p2079
aVuser
p2080
aVgrind
p2081
aVauthoritatively
p2082
aV768
p2083
aV769
p2084
aV762
p2085
aV760
p2086
aV766
p2087
aV764
p2088
aVrayawa
p2089
aVmarch
p2090
aVuncorroborated
p2091
aVinterestingly
p2092
aV775
p2093
aV773
p2094
aVcgi
p2095
aVsympathetic
p2096
aVrun
p2097
aVrum
p2098
aVrub
p2099
aVrup
p2100
aV76
p2101
aV71
p2102
aVheritage
p2103
aVrussian
p2104
aVintestacy
p2105
aVtoorak
p2106
aVcurriculum
p2107
aVrequired
p2108
aVfactually
p2109
aVevenly
p2110
aVge
p2111
aVgb
p2112
aVgo
p2113
aVgm
p2114
aVeffort
p2115
aVmikaele
p2116
aVdefamatory
p2117
aVprejudicially
p2118
aVstance
p2119
aVinteralia
p2120
aVexamining
p2121
aVcentum
p2122
aVcloud
p2123
aVpriya
p2124
aVmoses
p2125
aVhesitate
p2126
aVsenitiki
p2127
aVagenda
p2128
aVoffences
p2129
aV02s
p2130
aVworkmens
p2131
aVexclusion
p2132
aVhousewife
p2133
aVsword
p2134
aVauto
p2135
aV025
p2136
aV024
p2137
aV027
p2138
aV026
p2139
aV020
p2140
aV023
p2141
aV022
p2142
aV029
p2143
aV028
p2144
aVchung
p2145
aVaggravated
p2146
aVfathom
p2147
aVask
p2148
aVattach
p2149
aVrelinquish
p2150
aVoverwhelming
p2151
aVoutline
p2152
aVbeg
p2153
aVbed
p2154
aVexhibit
p2155
aVsubstantively
p2156
aVinstance
p2157
aVdemise
p2158
aVnuisance
p2159
aVaffair
p2160
aVparker
p2161
aVreprehensible
p2162
aVanyway
p2163
aVparked
p2164
aVfuel
p2165
aVevolution
p2166
aVdpp
p2167
aVmohammed
p2168
aVshe
p2169
aVwearsmart
p2170
aVaccused
p2171
aVcontusion
p2172
aVneither
p2173
aV612
p2174
aVcompetent
p2175
aVaddition
p2176
aVforeshore
p2177
aVexpenditure
p2178
aVbackdate
p2179
aVarchbold
p2180
aVincumbent
p2181
aVkiller
p2182
aVpractitioner
p2183
aVrightfully
p2184
aVtransaction
p2185
aVreflection
p2186
aVkick
p2187
aV0048
p2188
aVdefinitive
p2189
aVfate
p2190
aV0041
p2191
aV263
p2192
aV261
p2193
aV260
p2194
aV267
p2195
aV266
p2196
aV264
p2197
aV269
p2198
aV268
p2199
aV829
p2200
aVexpansion
p2201
aVyuen
p2202
aV820
p2203
aVinner
p2204
aVkalou
p2205
aVlimit
p2206
aVfolio
p2207
aVappoint
p2208
aVprotest
p2209
aV6pm
p2210
aVactivation
p2211
aVupr
p2212
aVheading
p2213
aV9pm
p2214
aVconcise
p2215
aVdesirous
p2216
aVnever
p2217
aVdrew
p2218
aVbuckley
p2219
aVastute
p2220
aVmortality
p2221
aVtell
p2222
aVunderwear
p2223
aVendow
p2224
aVgive
p2225
aVabdomen
p2226
aVsummarize
p2227
aVkaliova
p2228
aVrecusal
p2229
aVunemployed
p2230
aVadvise
p2231
aVdecree
p2232
aVlogging
p2233
aVisa
p2234
aVloud
p2235
aVstewart
p2236
aVhood
p2237
aVmatter
p2238
aVpsychologically
p2239
aVaccurately
p2240
aVinconsistency
p2241
aVremittance
p2242
aVscrupulous
p2243
aVintegrate
p2244
aVfolder
p2245
aVstop
p2246
aVethical
p2247
aVreference
p2248
aVvictorian
p2249
aVtantamount
p2250
aVtimeframe
p2251
aVwere
p2252
aVdistinction
p2253
aVawford
p2254
aVparticulars
p2255
aVrecognised
p2256
aVmotorist
p2257
aVrelevantly
p2258
aVanchor
p2259
aVix
p2260
aVjese
p2261
aVir
p2262
aVii
p2263
aVim
p2264
aVio
p2265
aVin
p2266
aVie
p2267
aVid
p2268
aVif
p2269
aVitaukei
p2270
aVfacto
p2271
aVidentify
p2272
aVfacts
p2273
aVmaciu
p2274
aVpain
p2275
aVbure
p2276
aVburn
p2277
aVformerly
p2278
aVpair
p2279
aVfrightened
p2280
aVincriminate
p2281
aVdiet
p2282
aVdied
p2283
aVassume
p2284
aVskin
p2285
aVert
p2286
aVstring
p2287
aVcontemporary
p2288
aV1995
p2289
aVerr
p2290
aVaccidentally
p2291
aVwherefore
p2292
aVsomalia
p2293
aVunrestricted
p2294
aVtransportation
p2295
aVdeceit
p2296
aVexploitation
p2297
aVwindeyer
p2298
aVdeceased
p2299
aVtilt
p2300
aVping
p2301
aVpine
p2302
aVchemical
p2303
aVtill
p2304
aVsunday
p2305
aVtile
p2306
aVmaybe
p2307
aVprovide
p2308
aVgesture
p2309
aVentity
p2310
aVstability
p2311
aVunethical
p2312
aVfinance
p2313
aVshatter
p2314
aVsooner
p2315
aVpeasant
p2316
aV823
p2317
aVmanubhai
p2318
aVrelive
p2319
aV929
p2320
aVlanguage
p2321
aVfiji
p2322
aValfred
p2323
aVrepatriate
p2324
aVstipulation
p2325
aVventure
p2326
aVcommends
p2327
aVfiles
p2328
aVsulu
p2329
aVpump
p2330
aVjunior
p2331
aVlabalaba
p2332
aVvitilevu
p2333
aVesala
p2334
aVover
p2335
aVtamani
p2336
aVcalendar
p2337
aVwhereabouts
p2338
aVlagilagi
p2339
aVkilling
p2340
aVnarrative
p2341
aVdisappointment
p2342
aVholders
p2343
aVjj
p2344
aVcustody
p2345
aVshortening
p2346
aVyugoslav
p2347
aVthose
p2348
aVmasirewa
p2349
aVunreported
p2350
aVmiddle
p2351
aVhereinbefore
p2352
aVforgery
p2353
aVsami
p2354
aVinsofar
p2355
aVsame
p2356
aVsamy
p2357
aVdeference
p2358
aVintermediary
p2359
aVintermittent
p2360
aVaccountable
p2361
aVamrit
p2362
aVganga
p2363
aVwifes
p2364
aVchamber
p2365
aVnose
p2366
aVrobbery
p2367
aVvoluntarily
p2368
aVspecifies
p2369
aVspecified
p2370
aVgross
p2371
aVsudan
p2372
aVbroken
p2373
aVsquarely
p2374
aVdraunidalo
p2375
aVsubregional
p2376
aVbelated
p2377
aVsuitcase
p2378
aVdeliberation
p2379
aVlifetime
p2380
aVdeterrent
p2381
aVfield
p2382
aVrevolve
p2383
aVremote
p2384
aVstarting
p2385
aVrepresent
p2386
aVreluctant
p2387
aVrwanda
p2388
aVresistance
p2389
aV012
p2390
aVsaudi
p2391
aVedu
p2392
aVbonis
p2393
aVlawyer
p2394
aVdisputed
p2395
aVsimon
p2396
aVprejudge
p2397
aVbarker
p2398
aVtransit
p2399
aVsanction
p2400
aVestablish
p2401
aVsanjay
p2402
aVcodify
p2403
aVcultivation
p2404
aVnone
p2405
aVcompare
p2406
aVassocs
p2407
aV08th
p2408
aVblood
p2409
aVunreservedly
p2410
aVcoal
p2411
aVexistence
p2412
aVedmund
p2413
aVaau0032
p2414
aVaau0037
p2415
aVtoken
p2416
aVsamu
p2417
aVspousal
p2418
aVidea
p2419
aVinsurance
p2420
aVinitiatives
p2421
aVdisposition
p2422
aV411
p2423
aVomit
p2424
aVnaco
p2425
aVtotally
p2426
aVkoy
p2427
aVsatish
p2428
aVinteractive
p2429
aVlui
p2430
aVonset
p2431
aVinstatement
p2432
aVcommentary
p2433
aVkb
p2434
aVkg
p2435
aVhumanitarian
p2436
aVko
p2437
aVweigh
p2438
aVsanctity
p2439
aVnotation
p2440
aVpermission
p2441
aVannexation
p2442
aVtender
p2443
aVsupply
p2444
aVthroughout
p2445
aVcreate
p2446
aVireland
p2447
aVunderstand
p2448
aVbill
p2449
aVtolerate
p2450
aVlenient
p2451
aVmoment
p2452
aVvalelevu
p2453
aVpurview
p2454
aVdishonesty
p2455
aVmatters
p2456
aVglove
p2457
aVimpeach
p2458
aVaudience
p2459
aVpen
p2460
aVpeg
p2461
aVcommentator
p2462
aVchargeable
p2463
aVforward
p2464
aVmesulame
p2465
aVinterlocutory
p2466
aV551
p2467
aVdispensation
p2468
aVmultiplicity
p2469
aVfisher
p2470
aVrecount
p2471
aVsurgeon
p2472
aVknight
p2473
aVmobilize
p2474
aVfactory
p2475
aVbroker
p2476
aVbachelor
p2477
aVintercept
p2478
aVnaitasiri
p2479
aVresolutions
p2480
aVinsufficiency
p2481
aVashamed
p2482
aVinformally
p2483
aVwhatsoever
p2484
aVeffectively
p2485
aVcontempt
p2486
aVlordships
p2487
aVannexed
p2488
aVkadeer
p2489
aVannexure
p2490
aVmeter
p2491
aVmeted
p2492
aVmarsh
p2493
aVlatitude
p2494
aVhaematoma
p2495
aVthwart
p2496
aVrabuka
p2497
aVrabuku
p2498
aVrokotuiwai
p2499
aVres
p2500
aVrep
p2501
aVrev
p2502
aVrea
p2503
aVref
p2504
aVred
p2505
aVfrank
p2506
aVdiplocks
p2507
aVhurdle
p2508
aVsitiveni
p2509
aVrealistically
p2510
aVdw2
p2511
aVlight
p2512
aVeight
p2513
aVabsurd
p2514
aV5pm
p2515
aVbernard
p2516
aVtiming
p2517
aVorgan
p2518
aVdefame
p2519
aV130
p2520
aVuntrue
p2521
aVdillon
p2522
aVnational
p2523
aVoptional
p2524
aVinstant
p2525
aVedinburgh
p2526
aVswim
p2527
aVpassing
p2528
aVlaugh
p2529
aVearning
p2530
aVarises
p2531
aVyavusa
p2532
aVlindley
p2533
aVgirlfriend
p2534
aVportray
p2535
aVuntoward
p2536
aVkaminieli
p2537
aVtaukei
p2538
aVkidnapping
p2539
aVcenter
p2540
aVbench
p2541
aVcitizen
p2542
aVdeployment
p2543
aVinsert
p2544
aVfatiaki
p2545
aVest
p2546
aVesq
p2547
aVblackstone
p2548
aVpanel
p2549
aVbaseless
p2550
aVtackle
p2551
aV1986
p2552
aV1987
p2553
aV1984
p2554
aV1985
p2555
aV1982
p2556
aV1980
p2557
aV1981
p2558
aV1989
p2559
aVbuy
p2560
aVbus
p2561
aVbut
p2562
aVbua
p2563
aVrelates
p2564
aV80
p2565
aV81
p2566
aVrevocation
p2567
aVvirtual
p2568
aV87
p2569
aV85
p2570
aVpupil
p2571
aVventilate
p2572
aVtweed
p2573
aVasish
p2574
aVevery
p2575
aVreciprocal
p2576
aVabovenamed
p2577
aVstreet
p2578
aVspecification
p2579
aVconduct
p2580
aVpath
p2581
aVgenerals
p2582
aVauction
p2583
aVtemesi
p2584
aVnzlr
p2585
aVvisible
p2586
aVphilip
p2587
aVmaika
p2588
aVmc
p2589
aVml
p2590
aVmh
p2591
aVms
p2592
aVmr
p2593
aVmy
p2594
aVquarrel
p2595
aVend
p2596
aVeng
p2597
aVcharging
p2598
aVltd
p2599
aVcement
p2600
aVstrangle
p2601
aVplaster
p2602
aVfilling
p2603
aVskeletal
p2604
aVlasting
p2605
aVsigning
p2606
aVgod
p2607
aVmillennium
p2608
aVgov
p2609
aValready
p2610
aVsober
p2611
aVcategorize
p2612
aVanalgesic
p2613
aVtool
p2614
aVserve
p2615
aVhumble
p2616
aVeffectiveness
p2617
aVenterprise
p2618
aVleniently
p2619
aVsunia
p2620
aVhospitalize
p2621
aVsunil
p2622
aVcapacity
p2623
aVinterviewing
p2624
aVimprove
p2625
aVprotect
p2626
aVwright
p2627
aVsearch
p2628
aVdarfur
p2629
aVlessee
p2630
aVlessen
p2631
aVdestroy
p2632
aVwound
p2633
aVcomplex
p2634
aVseveral
p2635
aVcatholic
p2636
aVprioritize
p2637
aVforfeiture
p2638
aVhumanity
p2639
aVapart
p2640
aVgift
p2641
aVindirect
p2642
aVcooper
p2643
aVbeniamino
p2644
aVarmed
p2645
aVice
p2646
aV429
p2647
aVprejudicial
p2648
aV421
p2649
aV420
p2650
aV423
p2651
aV422
p2652
aV424
p2653
aVpronouncement
p2654
aVgarnishee
p2655
aVlimitation
p2656
aVcensus
p2657
aVwhittaker
p2658
aVsharda
p2659
aVheffernan
p2660
aVlagi
p2661
aVpurposely
p2662
aVhead
p2663
aVmedium
p2664
aVheal
p2665
aVheat
p2666
aVhear
p2667
aVcounsel
p2668
aVbargain
p2669
aV43rd
p2670
aVbullet
p2671
aVwithhold
p2672
aVbroadly
p2673
aV0033
p2674
aVstamped
p2675
aVinland
p2676
aVsubstitute
p2677
aVdeo
p2678
aVunidentified
p2679
aVstroke
p2680
aVspeaks
p2681
aVirrational
p2682
aVsudharshana
p2683
aVpaclii
p2684
aVrefund
p2685
aVembezzlement
p2686
aVworship
p2687
aVenrolment
p2688
aVcutter
p2689
aVniudamu
p2690
aVrescind
p2691
aVeremasi
p2692
aVrealise
p2693
aVkpmg
p2694
aVultimately
p2695
aVnaua
p2696
aVscutt
p2697
aVconvention
p2698
aVhug
p2699
aVmontenegro
p2700
aVholder
p2701
aVlooting
p2702
aVdiplomatic
p2703
aVemphasis
p2704
aVpleasure
p2705
aVconsidered
p2706
aVperch
p2707
aVgounder
p2708
aVpendency
p2709
aVtailor
p2710
aVchitrasiri
p2711
aVexecutrix
p2712
aVfails
p2713
aVcolor
p2714
aVpole
p2715
aVpoll
p2716
aVabdul
p2717
aVhardly
p2718
aV630
p2719
aV631
p2720
aV632
p2721
aV633
p2722
aV634
p2723
aV635
p2724
aV636
p2725
aV637
p2726
aV638
p2727
aV639
p2728
aVhughes
p2729
aVamend
p2730
aVadmissibility
p2731
aVpeni
p2732
aVmcgregor
p2733
aVvolition
p2734
aVharrison
p2735
aVannouncement
p2736
aVexcept
p2737
aVscheduled
p2738
aVdefenceless
p2739
aVcompulsion
p2740
aVcommunicate
p2741
aVoutreach
p2742
aVon
p2743
aVom
p2744
aVok
p2745
aVof
p2746
aVkaran
p2747
aVmutually
p2748
aVor
p2749
aVcommunication
p2750
aVabrogate
p2751
aVstrictly
p2752
aVracism
p2753
aVracist
p2754
aVjun
p2755
aVchairperson
p2756
aVstrenuous
p2757
aVapplying
p2758
aVstrongly
p2759
aVseniority
p2760
aVpolitics
p2761
aVoneself
p2762
aVodds
p2763
aVsurgical
p2764
aVyabaki
p2765
aVprogram
p2766
aVpresentation
p2767
aVwoman
p2768
aVinduce
p2769
aVgrandfather
p2770
aVmanslaughter
p2771
aVratu
p2772
aVrate
p2773
aVdesign
p2774
aVhesitation
p2775
aVdeeply
p2776
aVeligibility
p2777
aVcombating
p2778
aVandrews
p2779
aVmisinterpret
p2780
aVeparama
p2781
aVembarrassing
p2782
aVarise
p2783
aVcultivate
p2784
aVcongo
p2785
aVdrasa
p2786
aVargentina
p2787
aVsamuela
p2788
aVinch
p2789
aVhalsbury
p2790
aVattendant
p2791
aVutilization
p2792
aVlecamwasam
p2793
aVoutstanding
p2794
aVcategorically
p2795
aVforeman
p2796
aVneedle
p2797
aVaggravate
p2798
aVpenalty
p2799
aVactivity
p2800
aVfrequency
p2801
aVconsciously
p2802
aVlicense
p2803
aVgiles
p2804
aVduplicity
p2805
aVbolster
p2806
aVbrick
p2807
aVrobust
p2808
aVlower
p2809
aVpersuasive
p2810
aVanybody
p2811
aVgrievance
p2812
aVprecedence
p2813
aVcompetitive
p2814
aVexclusively
p2815
aVvindicate
p2816
aVljj
p2817
aVaggravation
p2818
aVliq
p2819
aVeliki
p2820
aVconversant
p2821
aVordeal
p2822
aVwarning
p2823
aVkm
p2824
aVincome
p2825
aVchirk
p2826
aVpervert
p2827
aVdisposal
p2828
aVstable
p2829
aVdrinking
p2830
aVladyship
p2831
aVnervous
p2832
aVjessel
p2833
aVlinger
p2834
aVsomething
p2835
aVunited
p2836
aVprognosis
p2837
aVtension
p2838
aVimpecunious
p2839
aVreadiness
p2840
aVunsustainable
p2841
aVpermanent
p2842
aVimpaired
p2843
aVinvestor
p2844
aVprofound
p2845
aVzeiss
p2846
aVpromptly
p2847
aVusual
p2848
aVillicit
p2849
aVinmate
p2850
aVindividual
p2851
aVyohan
p2852
aVfetter
p2853
aVsincerity
p2854
aV021
p2855
aVwillful
p2856
aVharmful
p2857
aVunimpeded
p2858
aVmade
p2859
aVbrain
p2860
aVqb
p2861
aVqd
p2862
aVexpel
p2863
aVarguably
p2864
aVarguable
p2865
aVembarrassment
p2866
aVunconvincing
p2867
aVpackaging
p2868
aVrespect
p2869
aVfishery
p2870
aVliteral
p2871
aVsufficient
p2872
aValign
p2873
aVmember
p2874
aVpropensity
p2875
aVmutual
p2876
aVperpetrate
p2877
aVroutinely
p2878
aVfishing
p2879
aVenact
p2880
aVinterrogation
p2881
aVhelpful
p2882
aVdrop
p2883
aVgrowth
p2884
aVobey
p2885
aVextension
p2886
aVown
p2887
aVowe
p2888
aVkawa
p2889
aVovertime
p2890
aVappl
p2891
aVham088
p2892
aVrecord
p2893
aVdemonstrate
p2894
aVintentionally
p2895
aVmohini
p2896
aVfoul
p2897
aVpreface
p2898
aVaggression
p2899
aVhanak
p2900
aVcrutch
p2901
aVinducement
p2902
aVlgbt
p2903
aVtabuakuro
p2904
aVcocaine
p2905
aVlord
p2906
aVpursue
p2907
aVkmph
p2908
aVcurrency
p2909
aVutilise
p2910
aVtyped
p2911
aVbaggage
p2912
aVunforeseen
p2913
aVseries
p2914
aVsubstantially
p2915
aVjale
p2916
aVfoundation
p2917
aVwritten
p2918
aVnadera
p2919
aV2008s
p2920
aVclarity
p2921
aVhypothetical
p2922
aVtree
p2923
aVshower
p2924
aVrecommended
p2925
aVcamp
p2926
aVunconditional
p2927
aVparticipate
p2928
aVpsychiatric
p2929
aVforemost
p2930
aVinjuries
p2931
aVdefiance
p2932
aVdebt
p2933
aVyogesh
p2934
aVplanned
p2935
aVreconsideration
p2936
aVprivilege
p2937
aV077
p2938
aV073
p2939
aV070
p2940
aVuday
p2941
aVhuddleston
p2942
aVseverity
p2943
aVdamages
p2944
aVemphatic
p2945
aVslovenia
p2946
aV205
p2947
aVdjibouti
p2948
aVprevious
p2949
aV300
p2950
aVinnocent
p2951
aVpsychological
p2952
aVspecie
p2953
aVratakele
p2954
aVbaroda
p2955
aV304
p2956
aVexposition
p2957
aVdefensive
p2958
aVfacility
p2959
aVson
p2960
aVwrap
p2961
aVsupport
p2962
aVsolicitors
p2963
aVauthorized
p2964
aVinside
p2965
aVuntil
p2966
aVkohli
p2967
aVsuperfluous
p2968
aV99
p2969
aV98
p2970
aVsubvert
p2971
aVspeight
p2972
aVintegration
p2973
aVkoronivia
p2974
aVdisrepute
p2975
aVmidst
p2976
aVrecurrence
p2977
aVfemur
p2978
aVsettle
p2979
aVoccurrence
p2980
aVsign
p2981
aVunderstanding
p2982
aVsublease
p2983
aVineffective
p2984
aVlogical
p2985
aVfake
p2986
aVangry
p2987
aVextensive
p2988
aVtuifagalele
p2989
aVpretend
p2990
aVvalidly
p2991
aV239
p2992
aV235
p2993
aV236
p2994
aVstole
p2995
aV231
p2996
aV232
p2997
aV233
p2998
aVs6
p2999
aVsavou
p3000
aVundertook
p3001
aVprovincial
p3002
aVss
p3003
aVsr
p3004
aVsp
p3005
aVst
p3006
aVso
p3007
aV0093
p3008
aVdrunken
p3009
aVtora
p3010
aVlusiana
p3011
aVhot
p3012
aVsuspicion
p3013
aVconstitutes
p3014
aVsignificance
p3015
aVarbitrariness
p3016
aVabide
p3017
aVinvestigation
p3018
aVerp
p3019
aVsnell
p3020
aVfanciful
p3021
aVkuar
p3022
aVopen
p3023
aVbrevity
p3024
aVforeclose
p3025
aVargument
p3026
aV15pm
p3027
aVgolan
p3028
aVironically
p3029
aVaverage
p3030
aVlaws
p3031
aVmerit
p3032
aVcaveatable
p3033
aVpsychiatrist
p3034
aVassistant
p3035
aVkrishna
p3036
aVresource
p3037
aVahmad
p3038
aVcheshire
p3039
aVleweni
p3040
aVverma
p3041
aVsir
p3042
aVostensible
p3043
aVrecitation
p3044
aVconcentrate
p3045
aVmanu
p3046
aVmany
p3047
aVmani
p3048
aVmann
p3049
aVyearly
p3050
aVerc
p3051
aVhereabove
p3052
aVadjudication
p3053
aV3000
p3054
aVconcede
p3055
aVenable
p3056
aVgist
p3057
aVtribal
p3058
aValuminium
p3059
aVprevail
p3060
aVaccrual
p3061
aVsix
p3062
aVrecapture
p3063
aVpresumption
p3064
aVinter
p3065
aVconditional
p3066
aVpluralism
p3067
aVmalakai
p3068
aVher
p3069
aVhem
p3070
aVverbatim
p3071
aVmaldives
p3072
aVmask
p3073
aVdetention
p3074
aVdiary
p3075
aVharry
p3076
aVfrance
p3077
aVcall
p3078
aVmorgan
p3079
aVprompt
p3080
aVrefuse
p3081
aV1300
p3082
aVprashant
p3083
aVspeculate
p3084
aVhereafter
p3085
aVfound
p3086
aVreduce
p3087
aVqualify
p3088
aVowners
p3089
aVsimilarly
p3090
aVunsatisfied
p3091
aVguess
p3092
aVcontra
p3093
aVbitter
p3094
aVpedestrian
p3095
aVaiyaz
p3096
aVactionable
p3097
aVfreight
p3098
aVse
p3099
aVcompetently
p3100
aVperil
p3101
aVenemy
p3102
aVpotent
p3103
aVsankey
p3104
aVguinea
p3105
aVrespondents
p3106
aVsignatory
p3107
aVrepresentative
p3108
aVuncertain
p3109
aVmedically
p3110
aVreddy
p3111
aV879
p3112
aV877
p3113
aV874
p3114
aV875
p3115
aV871
p3116
aVforgiveness
p3117
aVcontrition
p3118
aVfabrication
p3119
aVeuro
p3120
aVvipul
p3121
aVkelly
p3122
aVadmission
p3123
aVsuffering
p3124
aVcontinue
p3125
aVsenate
p3126
aVspring
p3127
aVravinesh
p3128
aVcurious
p3129
aVannually
p3130
aVshall
p3131
aVsuit
p3132
aVelsewhere
p3133
aVcondign
p3134
aVus
p3135
aVun
p3136
aVuk
p3137
aVdhirendra
p3138
aVfixing
p3139
aVdeviate
p3140
aVtrouser
p3141
aVbateman
p3142
aVfresh
p3143
aVhaving
p3144
aVharvest
p3145
aVwipe
p3146
aVrace
p3147
aVtrite
p3148
aVimply
p3149
aVconsistently
p3150
aVpraise
p3151
aV693
p3152
aVlicence
p3153
aV696
p3154
aV694
p3155
aVtechnical
p3156
aVextreme
p3157
aVresulting
p3158
aVassemble
p3159
aVcausal
p3160
aVmutch
p3161
aVmidday
p3162
aVrubbish
p3163
aVslim
p3164
aVslip
p3165
aVdelai
p3166
aVdelay
p3167
aVopine
p3168
aVwristwatch
p3169
aVsolidarity
p3170
aVmove
p3171
aVchosen
p3172
aV2019
p3173
aV2015
p3174
aV2014
p3175
aV2017
p3176
aV2011
p3177
aV2010
p3178
aV2013
p3179
aV2012
p3180
aVtruth
p3181
aVgraze
p3182
aVkelton
p3183
aVweekly
p3184
aVdeceptive
p3185
aVcountervail
p3186
aVinalienable
p3187
aVbother
p3188
aVresult
p3189
aVcollecting
p3190
aVfourteenth
p3191
aV4000
p3192
aVaccuracy
p3193
aVratifying
p3194
aVmechanical
p3195
aVpainting
p3196
aVincarcerate
p3197
aVbring
p3198
aVdecade
p3199
aVprincipal
p3200
aVshould
p3201
aVspontaneity
p3202
aVmeant
p3203
aVpacket
p3204
aVpistol
p3205
aVld
p3206
aVdistil
p3207
aV606
p3208
aVhawkins
p3209
aVbavesi
p3210
aVspain
p3211
aVemosi
p3212
aVconcerted
p3213
aVoutbreak
p3214
aVdrink
p3215
aV357
p3216
aV355
p3217
aV354
p3218
aV353
p3219
aV352
p3220
aV359
p3221
aV358
p3222
aVmadam
p3223
aVgaudron
p3224
aVcommemoration
p3225
aVmanasa
p3226
aVexempt
p3227
aVcedaw
p3228
aVsupervise
p3229
aVosea
p3230
aVrectify
p3231
aVassess
p3232
aVklissers
p3233
aV36th
p3234
aVdisbursement
p3235
aVcompute
p3236
aVappraise
p3237
aVcontribute
p3238
aVsibling
p3239
aVpredominant
p3240
aVreckless
p3241
aVdefeasible
p3242
aVrex
p3243
aVcakau
p3244
aVvein
p3245
aVdefend
p3246
aVdesirable
p3247
aVcontroversial
p3248
aVdefraud
p3249
aVrem
p3250
aVplurinational
p3251
aVreg
p3252
aVdaughter
p3253
aVhindsight
p3254
aVgloss
p3255
aVnegative
p3256
aVmemoranda
p3257
aVaward
p3258
aVaware
p3259
aVcharacterize
p3260
aVtransparency
p3261
aV559
p3262
aV558
p3263
aV555
p3264
aV557
p3265
aV552
p3266
aV800
p3267
aVbeach
p3268
aVafter
p3269
aVretail
p3270
aVmodesty
p3271
aVjapan
p3272
aVrebellion
p3273
aVworkable
p3274
aVharmony
p3275
aVabsolve
p3276
aVkurisaqila
p3277
aVnullity
p3278
aVneck
p3279
aVhappily
p3280
aVminus
p3281
aVeffectuate
p3282
aVtransmit
p3283
aViceland
p3284
aVenvironmental
p3285
aVindorsement
p3286
aVvoting
p3287
aVeroni
p3288
aVfleming
p3289
aVkeywords
p3290
aVpersonality
p3291
aVcattle
p3292
aVatul
p3293
aVwo
p3294
aVexcess
p3295
aVair
p3296
aVaim
p3297
aVain
p3298
aVaid
p3299
aVproperty
p3300
aVuplift
p3301
aVpalpable
p3302
aVsealing
p3303
aVprescribed
p3304
aVcontact
p3305
aVprescribes
p3306
aVboard
p3307
aVretreat
p3308
aVviet
p3309
aVbeating
p3310
aVconstructive
p3311
aVstereo
p3312
aVnaikelekelevesi
p3313
aVbound
p3314
aVold
p3315
aVtappoo
p3316
aVconverse
p3317
aVtownsley
p3318
aVtrue
p3319
aVabsent
p3320
aVanew
p3321
aVinsistence
p3322
aVlinguistic
p3323
aVrehearse
p3324
aVsystem
p3325
aVcharles
p3326
aVchaudhry
p3327
aVperceived
p3328
aVcargo
p3329
aVappear
p3330
aVhavoc
p3331
aVsupporter
p3332
aVappeal
p3333
aVmuslim
p3334
aVprasads
p3335
aVincoming
p3336
aVprove
p3337
aVcommissioner
p3338
aVcas
p3339
aVcap
p3340
aVcav
p3341
aVcat
p3342
aVcan
p3343
aVcab
p3344
aVrecollect
p3345
aVclothing
p3346
aVredundancy
p3347
aVhematoma
p3348
aVovercrowd
p3349
aV1955
p3350
aV1956
p3351
aV1951
p3352
aV1950
p3353
aV1953
p3354
aV1952
p3355
aV1959
p3356
aVjanuary
p3357
aVdirecting
p3358
aVhappen
p3359
aVincrease
p3360
aVrational
p3361
aVinstate
p3362
aVcart
p3363
aVcard
p3364
aVcare
p3365
aVapaitia
p3366
aVbritish
p3367
aV2005s
p3368
aV2005l
p3369
aVmessage
p3370
aVjoseph
p3371
aVnutrition
p3372
aVmegarry
p3373
aVcontentious
p3374
aVprice
p3375
aVrationale
p3376
aVsuccessive
p3377
aViowane
p3378
aVincorporation
p3379
aVduplication
p3380
aVcyclone
p3381
aVeffectual
p3382
aVlivai
p3383
aVjudicata
p3384
aVisraeli
p3385
aVincite
p3386
aV9000
p3387
aVevict
p3388
aV2pm
p3389
aVobiter
p3390
aVpoonam
p3391
aVvalidate
p3392
aVconstitutional
p3393
aV32nd
p3394
aVcomment
p3395
aVvaluable
p3396
aVabrasion
p3397
aVaisake
p3398
aVrules
p3399
aVsri
p3400
aVsubarmani
p3401
aVearring
p3402
aVjoint
p3403
aVnamaka
p3404
aVcorrective
p3405
aVreliability
p3406
aVabsurdity
p3407
aVexpropriation
p3408
aVtime
p3409
aVmodify
p3410
aVselective
p3411
aV33in
p3412
aVinvalidate
p3413
aVcontains
p3414
aVinstrumental
p3415
aV811
p3416
aVoffender
p3417
aVoffended
p3418
aVhistory
p3419
aVfirmly
p3420
aVinvasion
p3421
aVnegligible
p3422
aVdeterioration
p3423
aVhelp
p3424
aVhell
p3425
aVanticipated
p3426
aVerection
p3427
aVissue
p3428
aVreason
p3429
aVaziz
p3430
aVlaunch
p3431
aVarbitration
p3432
aVscheme
p3433
aVyasin
p3434
aVhomicide
p3435
aVcrescent
p3436
aVevasion
p3437
aVvoidable
p3438
aVexperienced
p3439
aVunreasonably
p3440
aVtaito
p3441
aV1910
p3442
aVduncan
p3443
aVwithdrawal
p3444
aVcomplies
p3445
aVvessel
p3446
aV886
p3447
aVwasnt
p3448
aVlook
p3449
aVloot
p3450
aVready
p3451
aVivoire
p3452
aVdiscredit
p3453
aVjudiciary
p3454
aVthread
p3455
aVhousebreak
p3456
aVgrossly
p3457
aVchore
p3458
aVoutright
p3459
aVmathematical
p3460
aV28th
p3461
aVhirer
p3462
aVconditionally
p3463
aVminimal
p3464
aVstem
p3465
aVstep
p3466
aVache
p3467
aVbrowne
p3468
aVmanufacture
p3469
aVvalidity
p3470
aVwellbeing
p3471
aVsuite
p3472
aVbouwalu
p3473
aVpornography
p3474
aVpoke
p3475
aVprinting
p3476
aVcommercial
p3477
aVreferable
p3478
aV641
p3479
aV643
p3480
aV642
p3481
aV645
p3482
aV647
p3483
aV649
p3484
aVchand
p3485
aVchang
p3486
aVwin
p3487
aVwit
p3488
aVremains
p3489
aVadequacy
p3490
aVnarayans
p3491
aVkitione
p3492
aVoffense
p3493
aVbalaclava
p3494
aVbakery
p3495
aVnokia
p3496
aVliteracy
p3497
aVlajendra
p3498
aVserbia
p3499
aVconfess
p3500
aVdemeanour
p3501
aVmatebalavu
p3502
aVcompletely
p3503
aVnisha
p3504
aV1983
p3505
aVagony
p3506
aVburkina
p3507
aVpadarath
p3508
aV1988
p3509
aVprecisely
p3510
aVmanagement
p3511
aVpicturesquely
p3512
aVtruck
p3513
aVdeploy
p3514
aVexpired
p3515
aVpertinently
p3516
aVbased
p3517
aVfreeze
p3518
aVdriveway
p3519
aVdesperate
p3520
aVsabotage
p3521
aVcomparable
p3522
aVderive
p3523
aVbudgetary
p3524
aVyam
p3525
aVslowly
p3526
aV933
p3527
aVquotation
p3528
aV935
p3529
aVliquidator
p3530
aVtransformative
p3531
aVfide
p3532
aVwell
p3533
aVvide
p3534
aVmahesh
p3535
aVwainibuku
p3536
aVshalendra
p3537
aVconsultative
p3538
aVinaccurate
p3539
aVjournal
p3540
aVvariation
p3541
aVinterlinked
p3542
aVtongue
p3543
aVimperial
p3544
aVneutral
p3545
aVeric
p3546
aVmereseini
p3547
aVvacation
p3548
aVlesson
p3549
aVempowers
p3550
aVpersistent
p3551
aVsimpson
p3552
aVpardon
p3553
aVpardoe
p3554
aVplenary
p3555
aVwhose
p3556
aVdemerit
p3557
aVunauthorised
p3558
aVwreck
p3559
aV108
p3560
aV109
p3561
aV102
p3562
aV103
p3563
aV100
p3564
aV101
p3565
aV106
p3566
aV107
p3567
aV104
p3568
aV105
p3569
aVcredit
p3570
aVbesides
p3571
aVdictum
p3572
aVadult
p3573
aValigned
p3574
aVakin
p3575
aVsurveyor
p3576
aVmesake
p3577
aVconstrue
p3578
aVminority
p3579
aVpresident
p3580
aVmiscarry
p3581
aVbelarus
p3582
aVtherapy
p3583
aVmeat
p3584
aVmead
p3585
aVbona
p3586
aVbone
p3587
aVbond
p3588
aV1996l
p3589
aVspanish
p3590
aVkuruisaqila
p3591
aVquantify
p3592
aVcrucial
p3593
aVinstigate
p3594
aVimpossibility
p3595
aVthereof
p3596
aVdistance
p3597
aVpersuade
p3598
aVmini
p3599
aVmind
p3600
aVmine
p3601
aVming
p3602
aVregular
p3603
aVperera
p3604
aVparagraphs
p3605
aVprinciple
p3606
aVconsumer
p3607
aVexplain
p3608
aVsugar
p3609
aVstabbing
p3610
aVmischievous
p3611
aVchronological
p3612
aVdecides
p3613
aVdecided
p3614
aVsubject
p3615
aV02
p3616
aV03
p3617
aV00
p3618
aV06
p3619
aV04
p3620
aV05
p3621
aV08
p3622
aV09
p3623
aVulterior
p3624
aVnazhat
p3625
aVstakeholder
p3626
aV380
p3627
aV381
p3628
aV382
p3629
aV383
p3630
aV384
p3631
aV385
p3632
aV386
p3633
aV387
p3634
aV388
p3635
aV389
p3636
aVmukesh
p3637
aVdisorderly
p3638
aVfjca
p3639
aVagainst
p3640
aVabdominal
p3641
aVfutility
p3642
aVreferendum
p3643
aVerect
p3644
aVwebsite
p3645
aVsuppress
p3646
aVmoratorium
p3647
aVsaw
p3648
aVinadmissibility
p3649
aVentitled
p3650
aVkit
p3651
aVkin
p3652
aVkim
p3653
aVrehabilitative
p3654
aVkid
p3655
aVhuman
p3656
aVcharacter
p3657
aVunnecessary
p3658
aVempowerment
p3659
aVvaginal
p3660
aVnawasaitoga
p3661
aVmarshal
p3662
aVraman
p3663
aVferoz
p3664
aVdetective
p3665
aV20pm
p3666
aVplaintiffs
p3667
aVfacilitator
p3668
aVauthoritative
p3669
aVzhong
p3670
aVaunty
p3671
aVwarehouse
p3672
aVrevoke
p3673
aVuluivuda
p3674
aVsuffered
p3675
aVme
p3676
aVexcellency
p3677
aVchattel
p3678
aVitem
p3679
aVhaniff
p3680
aVexpulsion
p3681
aVsimultaneous
p3682
aVsuggestion
p3683
aVconveniently
p3684
aVelect
p3685
aVchands
p3686
aVverge
p3687
aVwealth
p3688
aVdemolish
p3689
aVwilfully
p3690
aVkenneth
p3691
aVconfused
p3692
aVcouncil
p3693
aVreside
p3694
aVmap
p3695
aVmar
p3696
aVmau
p3697
aVmat
p3698
aVmay
p3699
aVmag
p3700
aVman
p3701
aVjohnson
p3702
aVdeposit
p3703
aVdeceive
p3704
aVtall
p3705
aVtalk
p3706
aVshake
p3707
aVsatya
p3708
aVconsequential
p3709
aVrock
p3710
aVgonzalez
p3711
aVjackson
p3712
aVlagilevu
p3713
aVorg
p3714
aVord
p3715
aVkeith
p3716
aVadvance
p3717
aVthing
p3718
aVthink
p3719
aVcrim
p3720
aVbasnayake
p3721
aVrebuttal
p3722
aVanus
p3723
aV38th
p3724
aVpreston
p3725
aVconsortium
p3726
aVenter
p3727
aVnavuniani
p3728
aVshop
p3729
aVrating
p3730
aVshot
p3731
aVshow
p3732
aVelevate
p3733
aVarrears
p3734
aVcorner
p3735
aVmanoeuvre
p3736
aVbureau
p3737
aVnearly
p3738
aVadministration
p3739
aVrelative
p3740
aVparental
p3741
aV785
p3742
aV786
p3743
aV780
p3744
aVsimilar
p3745
aVejectment
p3746
aV787
p3747
aVsensible
p3748
aVmataitoga
p3749
aVfade
p3750
aVpredicament
p3751
aVongoing
p3752
aVspeech
p3753
aVyashni
p3754
aVdriven
p3755
aVlargely
p3756
aVmoney
p3757
aVgrip
p3758
aVfacing
p3759
aVcategorise
p3760
aVellis
p3761
aVcolonial
p3762
aVextensively
p3763
aVpioneer
p3764
aVarithmetical
p3765
aVshri
p3766
aVstrip
p3767
aVsophisticated
p3768
aVdownstairs
p3769
aVdeep
p3770
aVdeem
p3771
aVdeed
p3772
aVsyrian
p3773
aVprobative
p3774
aVvanuatu
p3775
aVinescapable
p3776
aVobserve
p3777
aVsemesa
p3778
aVgot
p3779
aVapplicable
p3780
aVabridge
p3781
aVillogical
p3782
aVcomponent
p3783
aV900
p3784
aV904
p3785
aV905
p3786
aVenmity
p3787
aVlegislator
p3788
aVreadily
p3789
aVdonaldson
p3790
aVeye
p3791
aVtwo
p3792
aVlibel
p3793
aVparagraph
p3794
aVabandon
p3795
aVgravely
p3796
aVmortem
p3797
aVpreparatory
p3798
aVsolomoni
p3799
aVsuffer
p3800
aV24
p3801
aV25
p3802
aV26
p3803
aV27
p3804
aV20
p3805
aV21
p3806
aV22
p3807
aV23
p3808
aV28
p3809
aV29
p3810
aVcomplain
p3811
aV2d
p3812
aVprint
p3813
aVcircumstance
p3814
aVvarani
p3815
aVdonu
p3816
aVdont
p3817
aVrevive
p3818
aVregulation
p3819
aVassumption
p3820
aVpara
p3821
aVpark
p3822
aVdentist
p3823
aVpart
p3824
aVrecording
p3825
aVdeclare
p3826
aVnominee
p3827
aVmajority
p3828
aVcameroon
p3829
aVsalmon
p3830
aVabu0020
p3831
aVextremely
p3832
aVmediation
p3833
aVliechtenstein
p3834
aVextortion
p3835
aVsector
p3836
aV216
p3837
aV212
p3838
aVruin
p3839
aV211
p3840
aVunhappy
p3841
aVdevastate
p3842
aVcommon
p3843
aV31506
p3844
aVexcavation
p3845
aVwednesbury
p3846
aVirregularly
p3847
aVsahim
p3848
aVsahib
p3849
aVelectoral
p3850
aVfashion
p3851
aVgaz
p3852
aVgas
p3853
aVgap
p3854
aVvann
p3855
aVconsular
p3856
aVwherein
p3857
aVday
p3858
aVpurpose
p3859
aVprevention
p3860
aVdiscipline
p3861
aVdisplace
p3862
aVsemi
p3863
aVacquaintance
p3864
aVpratap
p3865
aVverbally
p3866
aVinglis
p3867
aVparticularize
p3868
aVlessor
p3869
aV2010l
p3870
aVrealisation
p3871
aVcamera
p3872
aVfijis
p3873
aVimmigration
p3874
aVadjudicate
p3875
aV620
p3876
aVtoto
p3877
aVappointee
p3878
aVrecreation
p3879
aVinsertion
p3880
aVscientific
p3881
aV448
p3882
aV442
p3883
aV441
p3884
aV440
p3885
aV446
p3886
aV445
p3887
aV444
p3888
aVaverment
p3889
aVdharam
p3890
aVpreamble
p3891
aVdebito
p3892
aVdecrease
p3893
aVtrail
p3894
aViii
p3895
aVaccount
p3896
aValia
p3897
aVobvious
p3898
aValis
p3899
aVlami
p3900
aVlamp
p3901
aV779
p3902
aVexculpatory
p3903
aVdefective
p3904
aV9am
p3905
aVwilling
p3906
aVspell
p3907
aVcourtroom
p3908
aVaccumulated
p3909
aV0024
p3910
aVmate
p3911
aVmati
p3912
aVdebris
p3913
aVsixteenth
p3914
aVrecuse
p3915
aVunlikely
p3916
aVbelief
p3917
aVparke
p3918
aVafresh
p3919
aVreconcilable
p3920
aVnormally
p3921
aVrichards
p3922
aVkazakhstan
p3923
aVtwice
p3924
aVhandwritten
p3925
aVinjunctive
p3926
aVpattern
p3927
aVdeliver
p3928
aVcurtain
p3929
aVproposal
p3930
aVcurtail
p3931
aVbulu
p3932
aVbulk
p3933
aVbuli
p3934
aVbull
p3935
aVbula
p3936
aVnecessitate
p3937
aVgraduate
p3938
aVrigamoto
p3939
aVauthority
p3940
aVcakobau
p3941
aValthough
p3942
aVactual
p3943
aVwithdrew
p3944
aVdrip
p3945
aVvaurasi
p3946
aVesteem
p3947
aVmarika
p3948
aVridge
p3949
aV48
p3950
aV49
p3951
aV47
p3952
aV44
p3953
aV45
p3954
aV42
p3955
aV43
p3956
aV40
p3957
aV41
p3958
aVlimited
p3959
aVpoorly
p3960
aVstationery
p3961
aVphase
p3962
aVrequest
p3963
aVpartes
p3964
aVworsen
p3965
aVendorse
p3966
aVheadnote
p3967
aVforum
p3968
aVstipulates
p3969
aVstipulated
p3970
aVswearing
p3971
aVhospital
p3972
aVshyam
p3973
aVassessment
p3974
aVcompanys
p3975
aVunilateral
p3976
aVpluralistic
p3977
aVderogable
p3978
aVfijian
p3979
aVcomplexity
p3980
aVviti
p3981
aVhakim
p3982
aVcompelling
p3983
aVfitness
p3984
aVfraught
p3985
aVrelisted
p3986
aVsuva
p3987
aVgallagher
p3988
aVrank
p3989
aVhearing
p3990
aVinterrelated
p3991
aVpredominantly
p3992
aVinfliction
p3993
aVyang
p3994
aVwhomsoever
p3995
aVsaga
p3996
aVrefreshment
p3997
aVbenmax
p3998
aVfluid
p3999
aVreport
p4000
aVseruvatu
p4001
aVautomatic
p4002
aVmaharajs
p4003
aVhabit
p4004
aVsubmitted
p4005
aVcorrupt
p4006
aVunconscionable
p4007
aVweak
p4008
aVwear
p4009
aV39th
p4010
aVtrust
p4011
aVgyan
p4012
aVprocedure
p4013
aVprovocative
p4014
aVdeflect
p4015
aVlemaki
p4016
aVincapable
p4017
aVsamusamuvodre
p4018
aVshorthand
p4019
aVstrenuously
p4020
aVthick
p4021
aVafore
p4022
aVappearing
p4023
aVhunt
p4024
aVofficer
p4025
aVdisfigurement
p4026
aVcandidate
p4027
aVplus
p4028
aVtrafficker
p4029
aVtrafficked
p4030
aVscruptorum
p4031
aVquestionable
p4032
aVheinous
p4033
aVsatisfactorily
p4034
aVforearm
p4035
aVrodwell
p4036
aVbabitu
p4037
aVmiscellaneous
p4038
aVfaiyaz
p4039
aVyacht
p4040
aVfocus
p4041
aV428
p4042
aVenvironment
p4043
aVcharge
p4044
aVibrahim
p4045
aVuntenable
p4046
aVcook
p4047
aVcool
p4048
aV425
p4049
aVhawaii
p4050
aVchristmas
p4051
aVwitnesss
p4052
aV426
p4053
aVdried
p4054
aVfjsc
p4055
aVhealthy
p4056
aVmauritius
p4057
aVemerge
p4058
aVrussell
p4059
aVjude
p4060
aVcardinal
p4061
aVcondemn
p4062
aVliquid
p4063
aVpropriety
p4064
aVname
p4065
aVsteam
p4066
aVconstitution
p4067
aVunpaid
p4068
aVswing
p4069
aVchildhood
p4070
aVrevenue
p4071
aVpleaded
p4072
aVassort
p4073
aVcope
p4074
aVunfortunately
p4075
aVloquitur
p4076
aVoutcome
p4077
aVrent
p4078
aVideal
p4079
aVblunt
p4080
aVurge
p4081
aVfjhc
p4082
aVbetrayal
p4083
aVnlc
p4084
aVyasawa
p4085
aVtrade
p4086
aVreveal
p4087
aVlacanivalu
p4088
aV497
p4089
aVfederal
p4090
aV490
p4091
aVdefinite
p4092
aVits
p4093
aV493
p4094
aVindiscriminate
p4095
aVberry
p4096
aVduty
p4097
aVpot
p4098
aV60
p4099
aV61
p4100
aV62
p4101
aV5a
p4102
aV68
p4103
aV69
p4104
aV509
p4105
aV506
p4106
aV507
p4107
aV504
p4108
aVturaga
p4109
aV503
p4110
aV501
p4111
aVengine
p4112
aVpadlock
p4113
aVminister
p4114
aVcareful
p4115
aVirrelevant
p4116
aVmount
p4117
aVpremature
p4118
aVvest
p4119
aV1qb
p4120
aVerroneously
p4121
aVwillingly
p4122
aVpersons
p4123
aVunqualified
p4124
aVtwelfth
p4125
aVbrisbane
p4126
aVrosa
p4127
aVdisrupt
p4128
aVross
p4129
aVaisea
p4130
aVconfines
p4131
aVkennedy
p4132
aVreduces
p4133
aVsubstandard
p4134
aVreduced
p4135
aVatish
p4136
aVresonate
p4137
aVstand
p4138
aVgary
p4139
aVcontiguous
p4140
aVamongst
p4141
aVcollaborative
p4142
aVrecognise
p4143
aVunanswerable
p4144
aVsystemic
p4145
aVpty
p4146
aValr
p4147
aVwanton
p4148
aVdaurewa
p4149
aVprogramme
p4150
aVcrush
p4151
aVmultitude
p4152
aVunprofessional
p4153
aVraiwaqa
p4154
aVbehaviour
p4155
aVtaga
p4156
aV1843
p4157
aVpayee
p4158
aVminor
p4159
aVbasically
p4160
aVsalvador
p4161
aVcourt
p4162
aVgoal
p4163
aVjohannesburg
p4164
aVassailant
p4165
aVturnover
p4166
aVessence
p4167
aVnugatory
p4168
aVdisagreed
p4169
aVpray
p4170
aV37th
p4171
aVfriendship
p4172
aVexpect
p4173
aVreverend
p4174
aVshipment
p4175
aVget
p4176
aVinduced
p4177
aVconsequence
p4178
aVfeed
p4179
aVfourthly
p4180
aVfeel
p4181
aVbhan
p4182
aVbhai
p4183
aVsympathy
p4184
aVhotel
p4185
aVoutrageous
p4186
aVrisky
p4187
aVsuspicious
p4188
aVcognizant
p4189
aVcontractual
p4190
aV774
p4191
aV777
p4192
aV776
p4193
aV771
p4194
aV770
p4195
aV64
p4196
aV772
p4197
aVcigarette
p4198
aVintervener
p4199
aV66
p4200
aVnavitalai
p4201
aV524
p4202
aVpublicity
p4203
aVsavita
p4204
aVnumerous
p4205
aVprescription
p4206
aVhesitant
p4207
aVinterrogate
p4208
aVreferee
p4209
aVgeorgia
p4210
aVconception
p4211
aVcheek
p4212
aVstating
p4213
aVprofitable
p4214
aVcontractor
p4215
aVgovernmental
p4216
aVcomplaint
p4217
aVcomplains
p4218
aVparticularise
p4219
aVseller
p4220
aVinnovation
p4221
aVmadagascar
p4222
aVanalyze
p4223
aVcloth
p4224
aVconsist
p4225
aVprey
p4226
aVcharacteristic
p4227
aVhighlight
p4228
aVsublet
p4229
aVgraham
p4230
aVunjustifiably
p4231
aVunjustifiable
p4232
aVrightful
p4233
aVintentional
p4234
aVedi
p4235
aVedn
p4236
aV010
p4237
aV011
p4238
aV013
p4239
aV014
p4240
aV015
p4241
aV017
p4242
aV018
p4243
aV019
p4244
aVdramatically
p4245
aV01l
p4246
aV01s
p4247
aVtenderness
p4248
aVdefender
p4249
aVconcisely
p4250
aVtukai
p4251
aVrazak
p4252
aVsit
p4253
aVhandover
p4254
aVsic
p4255
aVsin
p4256
aVmaternal
p4257
aVdw3
p4258
aVdw1
p4259
aVdw4
p4260
aVsouthwick
p4261
aV88
p4262
aV89
p4263
aV82
p4264
aV83
p4265
aV86
p4266
aV84
p4267
aVplainly
p4268
aVecho
p4269
aVpublication
p4270
aVgenuineness
p4271
aVisolation
p4272
aVangle
p4273
aVpetrol
p4274
aVgerard
p4275
aVgait
p4276
aV0039
p4277
aV0031
p4278
aV0030
p4279
aVrite
p4280
aVwenlock
p4281
aVacutely
p4282
aVhardship
p4283
aVdlr
p4284
aVcorroborative
p4285
aVwale
p4286
aVwall
p4287
aVwalk
p4288
aVwalu
p4289
aVoverpayment
p4290
aVwaqasaqa
p4291
aVcoordinated
p4292
aVoverturn
p4293
aVinfluential
p4294
aVpdf
p4295
aVcollar
p4296
aVrecollection
p4297
aVmajesty
p4298
aVattractive
p4299
aVloan
p4300
aVcoincidence
p4301
aVdeepthi
p4302
aVprosequi
p4303
aVtumble
p4304
aVseverance
p4305
aVmotive
p4306
aVmonthly
p4307
aVoffenders
p4308
aVvan
p4309
aVvat
p4310
aVwhether
p4311
aVtemo
p4312
aVinadequate
p4313
aVmargaret
p4314
aVincurred
p4315
aVgranting
p4316
aVinwards
p4317
aVhandling
p4318
aVinternally
p4319
aVpulse
p4320
aVnaidu
p4321
aVcontributes
p4322
aVspecialist
p4323
aVreporter
p4324
aVhere
p4325
aVreported
p4326
aVhers
p4327
aVunit
p4328
aVholy
p4329
aVhold
p4330
aVhoc
p4331
aVhon
p4332
aVhow
p4333
aVhop
p4334
aVclassify
p4335
aVbeauty
p4336
aVheadquarters
p4337
aVdemocratic
p4338
aVbackdrop
p4339
aVbarclays
p4340
aVadmirable
p4341
aVgrievous
p4342
aVpreferential
p4343
aVwhim
p4344
aVcontracting
p4345
aVherbert
p4346
aVborne
p4347
aVmanagerial
p4348
aVfesaitu
p4349
aVxii
p4350
aVxiv
p4351
aVpalsy
p4352
aVacquisition
p4353
aVobject
p4354
aVleone
p4355
aV692
p4356
aV691
p4357
aV695
p4358
aV698
p4359
aV699
p4360
aVbush
p4361
aVrelease
p4362
aVinextricably
p4363
aVwhite
p4364
aVpity
p4365
aVaccident
p4366
aVpita
p4367
aV30th
p4368
aVaspect
p4369
aVmitigation
p4370
aVano
p4371
aVmateo
p4372
aVanu
p4373
aVpleads
p4374
aVany
p4375
aVtune
p4376
aVwatisoni
p4377
aVenters
p4378
aVease
p4379
aVeasy
p4380
aVdisagreement
p4381
aVmanufacturing
p4382
aVnamoli
p4383
aVslightly
p4384
aVinsurrection
p4385
aVunderstandably
p4386
aVdrummond
p4387
aVunderstandable
p4388
aVmeagre
p4389
aVpretrial
p4390
aVsmelt
p4391
aVfloor
p4392
aVuttered
p4393
aVgrammatical
p4394
aVdisruption
p4395
aVsailosi
p4396
aV818
p4397
aV819
p4398
aV810
p4399
aV814
p4400
aVbetterment
p4401
aVpsychosocial
p4402
aVfuneral
p4403
aVspecialised
p4404
aValone
p4405
aVprefer
p4406
aVcrime
p4407
aVmacedru
p4408
aVsubsistence
p4409
aVlaceration
p4410
aVtuberi
p4411
aVevidently
p4412
aVsackville
p4413
aVlaundry
p4414
aVautonomy
p4415
aVsuch
p4416
aVsuck
p4417
aVsundar
p4418
aVnoteworthy
p4419
aVthumb
p4420
aVturtle
p4421
aVvlr
p4422
aVsexually
p4423
aVformula
p4424
aVseventh
p4425
aVplea
p4426
aVseventy
p4427
aVdissipate
p4428
aVrealization
p4429
aVboyfriend
p4430
aV676
p4431
aVarun
p4432
aVfinancier
p4433
aVunsuitable
p4434
aVnote
p4435
aVhanding
p4436
aVnavua
p4437
aV684
p4438
aVsale
p4439
aVsalt
p4440
aVslow
p4441
aVgoing
p4442
aVjustitiae
p4443
aVborrow
p4444
aVroger
p4445
aVwhere
p4446
aVmorocco
p4447
aVslander
p4448
aVverification
p4449
aVkelemedi
p4450
aVspare
p4451
aVresidence
p4452
aVresidency
p4453
aVextinct
p4454
aVboat
p4455
aVstretch
p4456
aVlocally
p4457
aVsupposedly
p4458
aVpeniasi
p4459
aVconstituency
p4460
aVprevalence
p4461
aVlawton
p4462
aVamalgamate
p4463
aVauckland
p4464
aV324
p4465
aVvague
p4466
aVexpunge
p4467
aVbrito
p4468
aVnoon
p4469
aVexit
p4470
aVpower
p4471
aVintimate
p4472
aVorientation
p4473
aVfutile
p4474
aVcomplete
p4475
aVelimination
p4476
aVreasoned
p4477
aVcertain
p4478
aVabolish
p4479
aVfraudulent
p4480
aVaau0001
p4481
aVaau0002
p4482
aVaau0003
p4483
aVaau0008
p4484
aVpartial
p4485
aVrobber
p4486
aVexisting
p4487
aVstrand
p4488
aVlaying
p4489
aVadjust
p4490
aVrichard
p4491
aVsuccinct
p4492
aVmethod
p4493
aVconcluding
p4494
aVacquittal
p4495
aVsocial
p4496
aVconcerned
p4497
aVnormative
p4498
aVabundant
p4499
aVravindra
p4500
aV449
p4501
aVupjohn
p4502
aVdress
p4503
aVhindustani
p4504
aVlarceny
p4505
aVlatchan
p4506
aVdavey
p4507
aVabduction
p4508
aVattitude
p4509
aVrapidly
p4510
aV443
p4511
aVtimely
p4512
aV1am
p4513
aVauthorisation
p4514
aVmarry
p4515
aVterrify
p4516
aVreally
p4517
aVauthorization
p4518
aVadduce
p4519
aVfuller
p4520
aVunrealistic
p4521
aVreus
p4522
aVrecourse
p4523
aVswiftly
p4524
aVrequisite
p4525
aVproclaim
p4526
aVriver
p4527
aVcurrently
p4528
aVsefanaia
p4529
aVmisgiving
p4530
aVoffending
p4531
aVapprove
p4532
aVpublishing
p4533
aVreceive
p4534
aVinvolved
p4535
aVunincorporated
p4536
aVbarnes
p4537
aVshorten
p4538
aVshorter
p4539
aVvirtually
p4540
aVdeformity
p4541
aVopinion
p4542
aVstack
p4543
aVabusive
p4544
aVamp
p4545
aVinput
p4546
aVsubmissions
p4547
aVsurprised
p4548
aV1094
p4549
aVconsensus
p4550
aVtemple
p4551
aVexaggerated
p4552
aVstuart
p4553
aVrepair
p4554
aVlocus
p4555
aVspending
p4556
aVsubmit
p4557
aVcustom
p4558
aVthirdly
p4559
aVcontinuously
p4560
aVinformant
p4561
aVinvalid
p4562
aVoccasional
p4563
aVago
p4564
aVagm
p4565
aVfighter
p4566
aVage
p4567
aVcarrying
p4568
aVgossip
p4569
aVhousebreaking
p4570
aVtorture
p4571
aVcontinued
p4572
aVmaharaj
p4573
aVmonasavu
p4574
aVodd
p4575
aVindian
p4576
aVrespectively
p4577
aVgreat
p4578
aVcth
p4579
aVgrower
p4580
aVdisobey
p4581
aVcertificate
p4582
aVduplicate
p4583
aVlabourer
p4584
aVdemobilization
p4585
aVetuate
p4586
aVcharity
p4587
aVthis
p4588
aVthin
p4589
aVhereinafter
p4590
aVweaken
p4591
aVsingular
p4592
aVgardner
p4593
aVop
p4594
aVproducer
p4595
aVtrain
p4596
aVinitio
p4597
aVundervalue
p4598
aVundertaking
p4599
aVbeneath
p4600
aVshut
p4601
aVembarrass
p4602
aVhussein
p4603
aVtraveller
p4604
aVpartnership
p4605
aVdevice
p4606
aVatmosphere
p4607
aVterminate
p4608
aVbedroom
p4609
aVunconnected
p4610
aVdenmark
p4611
aVwithstand
p4612
aVincest
p4613
aVtaylor
p4614
aVimplicate
p4615
aVdrank
p4616
aVqc
p4617
aVneighbour
p4618
aVterrorism
p4619
aVtunidau
p4620
aVupon
p4621
aVnegligence
p4622
aVjamnadas
p4623
aVpaul
p4624
aVincreased
p4625
aVdesk
p4626
aVgarage
p4627
aVliterally
p4628
aVdoer
p4629
aVpayout
p4630
aVinsufficient
p4631
aVconcession
p4632
aVrevise
p4633
aVspouse
p4634
aVdilatory
p4635
aVcaubati
p4636
aVrule
p4637
aVvoter
p4638
aVconst
p4639
aVcompassion
p4640
aVlenaitasi
p4641
aVdelegate
p4642
aV298
p4643
aV299
p4644
aV296
p4645
aV297
p4646
aV294
p4647
aV295
p4648
aV293
p4649
aV290
p4650
aVdegrading
p4651
aVpragmatic
p4652
aV7th
p4653
aVincompatible
p4654
aVtold
p4655
aVsimultaneously
p4656
aVharoon
p4657
aVtempt
p4658
aVword
p4659
aVwork
p4660
aVindia
p4661
aVworse
p4662
aVequivocal
p4663
aVdisappear
p4664
aVdisappoint
p4665
aVbr
p4666
aVmeaningful
p4667
aVambulance
p4668
aVorder
p4669
aVlindsay
p4670
aVoffice
p4671
aVproportionate
p4672
aVoncoming
p4673
aVshameful
p4674
aVoxygen
p4675
aVfellowship
p4676
aVadmits
p4677
aVcompromise
p4678
aVnominal
p4679
aVforensic
p4680
aVdistal
p4681
aVrewrite
p4682
aVgenuine
p4683
aVyours
p4684
aVnephew
p4685
aVpreferred
p4686
aVpearson
p4687
aV414
p4688
aV415
p4689
aV416
p4690
aV412
p4691
aVanalytical
p4692
aV418
p4693
aV419
p4694
aVobserver
p4695
aVobserved
p4696
aVyet
p4697
aVreceived
p4698
aVilo
p4699
aVill
p4700
aVreceives
p4701
aVreceiver
p4702
aVpeacefully
p4703
aVwiden
p4704
aVwider
p4705
aVspeak
p4706
aVtrickery
p4707
aVmobilization
p4708
aVtikina
p4709
aVmistake
p4710
aVbrake
p4711
aVdescent
p4712
aVemphasise
p4713
aVnasir
p4714
aVcentred
p4715
aVimmaterial
p4716
aVoperandi
p4717
aVkaisamy
p4718
aVfinland
p4719
aVmaya
p4720
aV1907
p4721
aVrestructuring
p4722
aVbanker
p4723
aVlegislation
p4724
aVweldon
p4725
aVarrear
p4726
aVcrystal
p4727
aVarchive
p4728
aVreality
p4729
aVmarginalized
p4730
aVdissipation
p4731
aVdance
p4732
aVterror
p4733
aVbrown
p4734
aVtrouble
p4735
aVbirkenhead
p4736
aVhtm
p4737
aVassistance
p4738
aVcommensurate
p4739
aVstigmatization
p4740
aVwoolmington
p4741
aVlasaro
p4742
aVcyanamid
p4743
aVabandonment
p4744
aVrefine
p4745
aVfortunately
p4746
aVsubcommission
p4747
aVdive
p4748
aVsouthern
p4749
aVtypical
p4750
aVcounsellor
p4751
aVinterrelate
p4752
aVtabete
p4753
aVprovision
p4754
aVoverlook
p4755
aVvavadakua
p4756
aVmarina
p4757
aVmarine
p4758
aVvehemently
p4759
aVhonest
p4760
aV623
p4761
aV622
p4762
aV621
p4763
aV627
p4764
aV625
p4765
aV624
p4766
aV629
p4767
aV628
p4768
aVfaizal
p4769
aVaccordance
p4770
aVrecover
p4771
aVonline
p4772
aVoppressive
p4773
aVtooth
p4774
aVprofessional
p4775
aVfiling
p4776
aV40pm
p4777
aVthompson
p4778
aVfinnigan
p4779
aVnamely
p4780
aVunfit
p4781
aVnotice
p4782
aVgould
p4783
aVdiscernible
p4784
aVsusceptible
p4785
aVstrengthening
p4786
aVcakaudrove
p4787
aVtlr
p4788
aVexternal
p4789
aVsusu
p4790
aVetc
p4791
aVsumudu
p4792
aVallude
p4793
aVearly
p4794
aVbenefit
p4795
aVbusiness
p4796
aVarea
p4797
aVrotuma
p4798
aV1200
p4799
aVvalid
p4800
aVlandowning
p4801
aVyou
p4802
aVbuilding
p4803
aVrelieve
p4804
aVbalancing
p4805
aVfence
p4806
aVcasual
p4807
aVoverrule
p4808
aVcosmetic
p4809
aVharden
p4810
aVteach
p4811
aVassessor
p4812
aVralulu
p4813
aVanalogous
p4814
aVcoalition
p4815
aVtranscend
p4816
aVpraveen
p4817
aVjagdish
p4818
aVstayed
p4819
aVtried
p4820
aVtrier
p4821
aVderives
p4822
aVkeil
p4823
aVcommittee
p4824
aVcommitted
p4825
aVdiscloses
p4826
aVreluctance
p4827
aVactually
p4828
aVgoldstein
p4829
aVconflicting
p4830
aVbeyond
p4831
aVraymond
p4832
aVbusinessmen
p4833
aVmisc
p4834
aVmiss
p4835
aVkadavu
p4836
aVexpand
p4837
aVnigeria
p4838
aVbowen
p4839
aVbower
p4840
aVgrocery
p4841
aVacknowledgement
p4842
aValongside
p4843
aVaffirmative
p4844
aVlie
p4845
aVspeculative
p4846
aVlit
p4847
aVlip
p4848
aVuseless
p4849
aVaggravating
p4850
aVclear
p4851
aVclean
p4852
aVdespatch
p4853
aVintending
p4854
aVboth
p4855
aVsensitive
p4856
aVheaded
p4857
aVheader
p4858
aVterritory
p4859
aVdialogue
p4860
aVdetermination
p4861
aVwhile
p4862
aVbonus
p4863
aValong
p4864
aVnandan
p4865
aVpoland
p4866
aVauditor
p4867
aVcoup
p4868
aVnawaikula
p4869
aVcemetery
p4870
aVharmonize
p4871
aVchairman
p4872
aVpillay
p4873
aVpillar
p4874
aVjokapeci
p4875
aVpillai
p4876
aVfjmc
p4877
aVurgent
p4878
aVpuran
p4879
aVsubtract
p4880
aVhinge
p4881
aVblock
p4882
aVdissatisfaction
p4883
aVreef
p4884
aVskull
p4885
aVreportedly
p4886
aVresign
p4887
aVantecedent
p4888
aVpractically
p4889
aVmosque
p4890
aVverdict
p4891
aVmatawalu
p4892
aVinspection
p4893
aVexacerbate
p4894
aVunhelpful
p4895
aVnicholas
p4896
aVprescribe
p4897
aVvehicle
p4898
aVexhaustive
p4899
aVmain
p4900
aVlacerate
p4901
aVride
p4902
aValienation
p4903
aVunarmed
p4904
aVintruder
p4905
aVdurable
p4906
aVapologise
p4907
aVreferral
p4908
aVscrew
p4909
aV57
p4910
aVable
p4911
aVably
p4912
aVsingh
p4913
aVplumber
p4914
aVuntimely
p4915
aVearner
p4916
aVemployee
p4917
aVemployed
p4918
aVchaudary
p4919
aVabundance
p4920
aVbuyer
p4921
aVcontain
p4922
aVhardwood
p4923
aVpowder
p4924
aVstate
p4925
aVcareer
p4926
aVsucceed
p4927
aVtreat
p4928
aVshortfall
p4929
aVkava
p4930
aVkorovuto
p4931
aVeffect
p4932
aVdraconian
p4933
aVvoluntariness
p4934
aVample
p4935
aVamply
p4936
aVmartin
p4937
aVshed
p4938
aVshew
p4939
aVoppressively
p4940
aVpp
p4941
aVprohibited
p4942
aVpw
p4943
aV2cm
p4944
aVutility
p4945
aVevacuate
p4946
aV726
p4947
aV727
p4948
aV724
p4949
aV725
p4950
aV722
p4951
aV721
p4952
aVhemant
p4953
aV729
p4954
aVdevise
p4955
aVsecondly
p4956
aVcaptain
p4957
aVwilfred
p4958
aVconvenience
p4959
aVfarmhouse
p4960
aVever
p4961
aVdeposition
p4962
aVexpedited
p4963
aVjosese
p4964
aV213
p4965
aVschooling
p4966
aVcircumvent
p4967
aVparticularity
p4968
aVcalm
p4969
aVcuriosity
p4970
aVlesbian
p4971
aVpurchase
p4972
aVdeck
p4973
aVbamola
p4974
aVresponsive
p4975
aV219
p4976
aVextract
p4977
aVasaeli
p4978
aVrestricted
p4979
aVproportionality
p4980
aVfieri
p4981
aV291
p4982
aV06s
p4983
aV061
p4984
aV060
p4985
aV065
p4986
aV069
p4987
aVsymptom
p4988
aVanxiety
p4989
aVsolomon
p4990
aVrigorous
p4991
aVchest
p4992
aVtrusteeship
p4993
aVretire
p4994
aVbahrain
p4995
aVbar
p4996
aVbay
p4997
aVillegitimate
p4998
aVbag
p4999
aVbad
p5000
aVban
p5001
aVbal
p5002
aVbai
p5003
aVbrazil
p5004
aVinappropriate
p5005
aVdisprove
p5006
aVignorance
p5007
aVexemplary
p5008
aVthree
p5009
aVaviation
p5010
aVoriginate
p5011
aVsuppose
p5012
aVbalance
p5013
aVdoha
p5014
aVmexico
p5015
aVcogent
p5016
aVpotentially
p5017
aVlomaloma
p5018
aVclaims
p5019
aVsentence
p5020
aVunfair
p5021
aVinfinitely
p5022
aVsamisoni
p5023
aVwhichever
p5024
aV201
p5025
aV206
p5026
aVreinstate
p5027
aVsuper
p5028
aVassault
p5029
aVcommit
p5030
aVdoctrine
p5031
aVinsult
p5032
aVannoyance
p5033
aVsubdivide
p5034
aVbolivia
p5035
aVoffering
p5036
aV229
p5037
aV228
p5038
aV227
p5039
aVblindness
p5040
aV225
p5041
aV224
p5042
aV223
p5043
aV221
p5044
aV220
p5045
aVdiagnose
p5046
aVhanded
p5047
aVgradually
p5048
aVjones
p5049
aVtabaiwalu
p5050
aVtechnique
p5051
aVconvicted
p5052
aVairfare
p5053
aVqbe
p5054
aVdim
p5055
aVdin
p5056
aVdid
p5057
aVdie
p5058
aVdia
p5059
aVdiv
p5060
aVvilla
p5061
aVdecriminalize
p5062
aVfavour
p5063
aVinvoluntarily
p5064
aVmonies
p5065
aVwait
p5066
aVinstitute
p5067
aVeverybody
p5068
aVdiscus
p5069
aVcited
p5070
aVacceptable
p5071
aVfly
p5072
aVflr
p5073
aVsour
p5074
aV9th
p5075
aVwalsh
p5076
aVpredict
p5077
aVmartintar
p5078
aV6th
p5079
aVborrowing
p5080
aVsumner
p5081
aVapimeleki
p5082
aVgradual
p5083
aVargues
p5084
aVmail
p5085
aVoutweigh
p5086
aVratuvili
p5087
aVabnormal
p5088
aVgirl
p5089
aVliving
p5090
aVcorrect
p5091
aVscintilla
p5092
aVvokanavanua
p5093
aVdischarged
p5094
aVslept
p5095
aVadjudicating
p5096
aVundoubtedly
p5097
aVcomplainant
p5098
aVprotected
p5099
aVexpire
p5100
aVanswering
p5101
aVchannel
p5102
aVtrace
p5103
aVsurprising
p5104
aVraikadroka
p5105
aVcertification
p5106
aVajmeer
p5107
aVimpunity
p5108
aVranking
p5109
aVmuni
p5110
aVhostage
p5111
aVdistinctly
p5112
aVconjunction
p5113
aVmisconduct
p5114
aVcontractually
p5115
aV0014
p5116
aVassociated
p5117
aVinvoluntariness
p5118
aVunusual
p5119
aV0011
p5120
aVacre
p5121
aVmary
p5122
aVdifferent
p5123
aVharsh
p5124
aVdoctor
p5125
aVexhaust
p5126
aVbottle
p5127
aVishwar
p5128
aVparas
p5129
aV7am
p5130
aVcelebrated
p5131
aVhalsburys
p5132
aVcritical
p5133
aVmoderate
p5134
aV371
p5135
aVviolence
p5136
aV376
p5137
aVfnpf
p5138
aVsubdivision
p5139
aVunload
p5140
aVproximate
p5141
aVresolution
p5142
aVchildren
p5143
aVaustralia
p5144
aVpremium
p5145
aVstraightforward
p5146
aVbiological
p5147
aVvuniwaqa
p5148
aVmovement
p5149
aVmanually
p5150
aVdisastrous
p5151
aVauthorize
p5152
aVvarying
p5153
aVnineteen
p5154
aVwillfully
p5155
aVdeplores
p5156
aVguesswork
p5157
aVresponse
p5158
aVinfant
p5159
aVazerbaijan
p5160
aVpt
p5161
aVsomeone
p5162
aVmental
p5163
aVconnect
p5164
aVflower
p5165
aVacting
p5166
aVincarceration
p5167
aVmistakenly
p5168
aVpc
p5169
aVcontrary
p5170
aVtreated
p5171
aVdanckwerts
p5172
aVbuilt
p5173
aVbuild
p5174
aVdirectorate
p5175
aVparticularly
p5176
aVfine
p5177
aVfind
p5178
aVambit
p5179
aVmercy
p5180
aVdomain
p5181
aV11th
p5182
aVencapsulate
p5183
aVvuataki
p5184
aVcarelessness
p5185
aVindecent
p5186
aVprosecuting
p5187
aVraise
p5188
aVsolid
p5189
aVimpracticable
p5190
aVtextile
p5191
aVosteoarthritis
p5192
aVab
p5193
aVsupersede
p5194
aVdixon
p5195
aVendeavor
p5196
aVrestrictive
p5197
aVfee
p5198
aVbankruptcy
p5199
aVtokatoka
p5200
aVexpedition
p5201
aVlend
p5202
aVheir
p5203
aVimpermissible
p5204
aVamended
p5205
aVinfection
p5206
aVlent
p5207
aVdesert
p5208
aV2002
p5209
aV2003
p5210
aV2000
p5211
aV2001
p5212
aV2006
p5213
aV2007
p5214
aV2004
p5215
aV2005
p5216
aV2008
p5217
aV2009
p5218
aVdebenture
p5219
aVrakuita
p5220
aVingredient
p5221
aVarrange
p5222
aVshock
p5223
aVjoes
p5224
aVorisi
p5225
aVbody
p5226
aVjustification
p5227
aVlimp
p5228
aVlimb
p5229
aVscandal
p5230
aVfulfillment
p5231
aVnative
p5232
aVattachment
p5233
aV1998l
p5234
aVchief
p5235
aVsummery
p5236
aVactuate
p5237
aVmention
p5238
aVcutting
p5239
aVdisregard
p5240
aVidentifies
p5241
aV417
p5242
aV410
p5243
aVthereupon
p5244
aV413
p5245
aVadministratrix
p5246
aVverify
p5247
aVsteal
p5248
aVqualification
p5249
aVfacilitate
p5250
aVsouth
p5251
aVinstill
p5252
aVreaffirm
p5253
aVembody
p5254
aVdictate
p5255
aV320
p5256
aV328
p5257
aVunless
p5258
aVpreliminary
p5259
aVbeat
p5260
aVbear
p5261
aVbeam
p5262
aVomission
p5263
aVexists
p5264
aVnabouwalu
p5265
aVprogress
p5266
aVrebuttable
p5267
aVgrantham
p5268
aVplayer
p5269
aVappearance
p5270
aVmurphy
p5271
aVfrivolous
p5272
aVinsure
p5273
aVthought
p5274
aVdomestic
p5275
aVtough
p5276
aVrebate
p5277
aVjournalist
p5278
aValive
p5279
aVconvey
p5280
aVnoise
p5281
aVnarrate
p5282
aVaddendum
p5283
aVchildrens
p5284
aVguard
p5285
aVequitable
p5286
aVadolescent
p5287
aV568
p5288
aV569
p5289
aV560
p5290
aV561
p5291
aV562
p5292
aV563
p5293
aV564
p5294
aV565
p5295
aV567
p5296
aVsupreme
p5297
aVpin
p5298
aVpig
p5299
aVparaguay
p5300
aVclaiming
p5301
aVforestry
p5302
aVunrecovered
p5303
aVcomparatively
p5304
aVfounder
p5305
aVmerchant
p5306
aVrisk
p5307
aVrise
p5308
aVbolivarian
p5309
aVguiding
p5310
aVsurrounding
p5311
aVinjunct
p5312
aV25th
p5313
aVphone
p5314
aVniemann
p5315
aVarthritis
p5316
aVunpunished
p5317
aVacknowledges
p5318
aVexecuted
p5319
aVinterpretation
p5320
aVsickly
p5321
aVdescend
p5322
aVnetherlands
p5323
aVbosnia
p5324
aVprohibit
p5325
aVindependent
p5326
aVmatai
p5327
aVformation
p5328
aVrecite
p5329
aVpercentage
p5330
aVdriu
p5331
aVgabon
p5332
aVram
p5333
aVraj
p5334
aVraw
p5335
aVrat
p5336
aVrap
p5337
aVunaffected
p5338
aVtibia
p5339
aV03s
p5340
aVpartition
p5341
aVmetal
p5342
aVcuria
p5343
aVavailability
p5344
aVsaiyad
p5345
aV05th
p5346
aVswears
p5347
aVunicef
p5348
aVropate
p5349
aVcomprehension
p5350
aVfleeting
p5351
aVrakiraki
p5352
aVpenultimate
p5353
aVesquire
p5354
aVadministrative
p5355
aVmisery
p5356
aVlaptop
p5357
aVwholesaler
p5358
aVincontrovertible
p5359
aVreviewable
p5360
aVdonald
p5361
aVadvertise
p5362
aV537
p5363
aVbooking
p5364
aVwaqavonovono
p5365
aVsteadily
p5366
aVkamisese
p5367
aVpresence
p5368
aVanderson
p5369
aVsustained
p5370
aVflood
p5371
aVbailment
p5372
aVpenal
p5373
aVcheck
p5374
aVtip
p5375
aVtin
p5376
aVlonger
p5377
aVcomputation
p5378
aV1948
p5379
aV1949
p5380
aV1942
p5381
aV1943
p5382
aV1940
p5383
aV1941
p5384
aV1946
p5385
aV1944
p5386
aV2004l
p5387
aVplanning
p5388
aVquick
p5389
aVvakaloloma
p5390
aVreply
p5391
aVstandi
p5392
aVmonths
p5393
aVwater
p5394
aVexpressly
p5395
aVmemory
p5396
aVcertiorari
p5397
aVaustralian
p5398
aVunwarranted
p5399
aVcashier
p5400
aVdrown
p5401
aVstream
p5402
aVconversely
p5403
aVinheritance
p5404
aVsecured
p5405
aVexclusive
p5406
aVmidnight
p5407
aVorganisation
p5408
aVhamilton
p5409
aVauthenticity
p5410
aVsuspend
p5411
aVplastic
p5412
aVgenerality
p5413
aVconversion
p5414
aVparaphrase
p5415
aVapisalome
p5416
aVsenior
p5417
aVwood
p5418
aVexpectation
p5419
aVnacolawa
p5420
aVparking
p5421
aVnd
p5422
aVunusually
p5423
aVutterance
p5424
aVpakistan
p5425
aVreimburse
p5426
aVvunidawa
p5427
aVtelephone
p5428
aVsupra
p5429
aVethiopia
p5430
aVreminder
p5431
aVdriver
p5432
aVdisadvantaged
p5433
aVstake
p5434
aVgavin
p5435
aVkill
p5436
aVprejudiced
p5437
aVblow
p5438
aVhint
p5439
aVfalsely
p5440
aVmystery
p5441
aVnadroga
p5442
aVdeduct
p5443
aVdeduce
p5444
aVgregory
p5445
aVcambridge
p5446
aVspinal
p5447
aVlastly
p5448
aVatkin
p5449
aVpuisne
p5450
aVfrighten
p5451
aVincorrect
p5452
aVrubber
p5453
aVseparate
p5454
aVclauses
p5455
aVlack
p5456
aV064
p5457
aVfax
p5458
aVfar
p5459
aVfat
p5460
aVfai
p5461
aVhemp
p5462
aVand
p5463
aVsynergy
p5464
aVdepreciation
p5465
aVforcefully
p5466
aVactus
p5467
aVstick
p5468
aVunblemished
p5469
aVdual
p5470
aVpenitentiary
p5471
aVretaliate
p5472
aVmoidean
p5473
aVdisabled
p5474
aVficac
p5475
aVaccumulate
p5476
aVrefresh
p5477
aVinflict
p5478
aVetat
p5479
aVsherani
p5480
aVforgive
p5481
aVabeyance
p5482
aVdisqualify
p5483
aVregret
p5484
aVheadache
p5485
aVoption
p5486
aVtreasurer
p5487
aVvindication
p5488
aValbeit
p5489
aVdouble
p5490
aVreach
p5491
aVreact
p5492
aVnaivalu
p5493
aVachievement
p5494
aVhindrance
p5495
aVsathyaa
p5496
aVunilaterally
p5497
aVhip
p5498
aVhis
p5499
aVhit
p5500
aVhiv
p5501
aVsmell
p5502
aVbare
p5503
aVgreece
p5504
aVlearnt
p5505
aVdistinctive
p5506
aVrapid
p5507
aV8am
p5508
aVborth
p5509
aVwhom
p5510
aVreduction
p5511
aVbainimarama
p5512
aVanguish
p5513
aVtwofold
p5514
aVnegotiate
p5515
aVedge
p5516
aVendeavour
p5517
aVreliant
p5518
aVvigilant
p5519
aVcouch
p5520
aVmoloney
p5521
aV674
p5522
aV675
p5523
aV670
p5524
aV671
p5525
aV673
p5526
aVignore
p5527
aVunstable
p5528
aVpalmer
p5529
aVchetty
p5530
aVhatred
p5531
aVraniga
p5532
aVluke
p5533
aVrepeatedly
p5534
aVnotification
p5535
aVworthwhile
p5536
aVprasad
p5537
aVmalicious
p5538
aVviscount
p5539
aVrokoua
p5540
aV578
p5541
aVadjustment
p5542
aVswelling
p5543
aVdealt
p5544
aVmanifestly
p5545
aVhourly
p5546
aVsubhas
p5547
aVukraine
p5548
aVforbid
p5549
aVunprovoked
p5550
aVinclined
p5551
aVwomen
p5552
aVindulgence
p5553
aVrape
p5554
aVusaia
p5555
aVreaffirms
p5556
aVexemplify
p5557
aVadministrator
p5558
aVbreast
p5559
aVchoose
p5560
aVreilly
p5561
aVpending
p5562
aVnotable
p5563
aVejaculate
p5564
aVimpart
p5565
aVsacrifice
p5566
aVproviso
p5567
aVanyhow
p5568
aVconversation
p5569
aVadrian
p5570
aVsalient
p5571
aVintention
p5572
aVoverdraft
p5573
aVgallen
p5574
aVnaisua
p5575
aVcommence
p5576
aVwhenever
p5577
aVqudogestum
p5578
aVlesuma
p5579
aVlateness
p5580
aVbarwick
p5581
aVdelve
p5582
aVpurely
p5583
aVchicken
p5584
aVdebate
p5585
aVproprietorship
p5586
aV11am
p5587
aVview
p5588
aVunfairly
p5589
aVmentioned
p5590
aVemirate
p5591
aVrepetition
p5592
aVwill
p5593
aVwild
p5594
aVprivileged
p5595
aVdiploma
p5596
aVenglish
p5597
aVhappiness
p5598
aVganilau
p5599
aVidentical
p5600
aV115
p5601
aV114
p5602
aV117
p5603
aV116
p5604
aV111
p5605
aV110
p5606
aV113
p5607
aV112
p5608
aV118
p5609
aVleaf
p5610
aVlead
p5611
aVlean
p5612
aVlocate
p5613
aVshipping
p5614
aVsurge
p5615
aVwarranty
p5616
aVbrush
p5617
aVprosecutorial
p5618
aVboot
p5619
aVbook
p5620
aVflexion
p5621
aVjune
p5622
aVdeferment
p5623
aVstipulate
p5624
aVappropriation
p5625
aVfour
p5626
aVjoeli
p5627
aVcyprus
p5628
aVcooking
p5629
aVsuccumb
p5630
aV1997l
p5631
aV1997s
p5632
aVchina
p5633
aVappropriately
p5634
aVlengthen
p5635
aVgrahame
p5636
aVmusic
p5637
aVtherefore
p5638
aVexport
p5639
aVcircumstances
p5640
aVlocked
p5641
aVdeputy
p5642
aVunjust
p5643
aVabsolute
p5644
aVshameem
p5645
aV18th
p5646
aVritesh
p5647
aVcorridor
p5648
aVsixteen
p5649
aVburial
p5650
aVallan
p5651
aV393
p5652
aV392
p5653
aV391
p5654
aV390
p5655
aV397
p5656
aV396
p5657
aV395
p5658
aV394
p5659
aV399
p5660
aV398
p5661
aVmason
p5662
aVencourage
p5663
aVbranch
p5664
aVstamping
p5665
aVbakani
p5666
aVuniversally
p5667
aVservice
p5668
aVidle
p5669
aVspectrum
p5670
aVcommitting
p5671
aVsugarcane
p5672
aVmouth
p5673
aVexpound
p5674
aVscream
p5675
aVrich
p5676
aVrice
p5677
aVrica
p5678
aV2001s
p5679
aVsensitivity
p5680
aV48th
p5681
aVtyranny
p5682
aVveer
p5683
aVeradicate
p5684
aVunion
p5685
aVfreehold
p5686
aVdavy
p5687
aVparticipatory
p5688
aVemploy
p5689
aVeighteen
p5690
aVsplit
p5691
aVworkforce
p5692
aVterrorist
p5693
aVsurvival
p5694
aVshadow
p5695
aVattorney
p5696
aVprolonged
p5697
aVcaribbean
p5698
aVrookes
p5699
aVmbf
p5700
aVadminister
p5701
aVsuffice
p5702
aVsafeguard
p5703
aVunanimous
p5704
aVeventual
p5705
aVrole
p5706
aVtransgender
p5707
aVroll
p5708
aVintend
p5709
aVintent
p5710
aVvariable
p5711
aVepeli
p5712
aVculprit
p5713
aV690
p5714
aVgummow
p5715
aVchoice
p5716
aVcooke
p5717
aV697
p5718
aVfletcher
p5719
aVprocedurally
p5720
aVinstal
p5721
aVworking
p5722
aVliyanage
p5723
aVsierra
p5724
aVoriginally
p5725
aVabortion
p5726
aVharmonious
p5727
aVcaution
p5728
aVper
p5729
aVreassessment
p5730
aVconscious
p5731
aVmango
p5732
aVswollen
p5733
aVtuisawau
p5734
aVyears
p5735
aVcrpd
p5736
aVhac055
p5737
aVhac054
p5738
aVhac056
p5739
aVsuspension
p5740
aVtroubled
p5741
aVcivilian
p5742
aVindigenous
p5743
aVhowsoever
p5744
aVsalmond
p5745
aVhandwrite
p5746
aVfisherman
p5747
aVretrieve
p5748
aVreceipt
p5749
aVsponsor
p5750
aV794
p5751
aV798
p5752
aVtrauma
p5753
aVinternet
p5754
aVinitiate
p5755
aVneglect
p5756
aVemotion
p5757
aVsaving
p5758
aVreprisal
p5759
aVone
p5760
aVpunishable
p5761
aVmototabua
p5762
aVtranslate
p5763
aVillness
p5764
aVorally
p5765
aVprinter
p5766
aVprinted
p5767
aVknowingly
p5768
aVtikoitoga
p5769
aVaggressive
p5770
aVvision
p5771
aVmaitava
p5772
aV1725
p5773
aVformer
p5774
aVdeprive
p5775
aVnewspaper
p5776
aVsituation
p5777
aVdubious
p5778
aVlegalistic
p5779
aVsingapore
p5780
aVdefy
p5781
aVnearby
p5782
aVdimension
p5783
aV463
p5784
aVoverthrow
p5785
aVworld
p5786
aVpostal
p5787
aVmilitate
p5788
aVsuperintendent
p5789
aVcavity
p5790
aVseaman
p5791
aVrefundable
p5792
aV916
p5793
aV910
p5794
aVindefeasible
p5795
aVleadership
p5796
aVdeterrence
p5797
aVpull
p5798
aVrush
p5799
aVgratuitous
p5800
aVideally
p5801
aVinfirmity
p5802
aVomnibus
p5803
aVkilogram
p5804
aVscc
p5805
aVsct
p5806
aVconditionality
p5807
aVscr
p5808
aVre
p5809
aV24th
p5810
aVro
p5811
aVsmall
p5812
aVpast
p5813
aVpass
p5814
aVinvestment
p5815
aVclock
p5816
aVfull
p5817
aVnovember
p5818
aVexperience
p5819
aVprior
p5820
aVcessation
p5821
aVfollower
p5822
aVattendance
p5823
aVdoor
p5824
aVsudhakar
p5825
aVdoom
p5826
aVdiabetic
p5827
aVpresently
p5828
aVrespective
p5829
aVenlarge
p5830
aVspeedy
p5831
aVintended
p5832
aVmortgage
p5833
aVlanka
p5834
aVrepealed
p5835
aVroots
p5836
aVhearsay
p5837
aVuniversality
p5838
aV2008l
p5839
aVrepayment
p5840
aVbalram
p5841
aVoperation
p5842
aVkensington
p5843
aVoccurs
p5844
aVdefinition
p5845
aVgraphic
p5846
aVtestament
p5847
aVpurport
p5848
aVmoderately
p5849
aVaver
p5850
aVjustly
p5851
aVinterviewed
p5852
aVcharger
p5853
aVservitude
p5854
aVsell
p5855
aVself
p5856
aValso
p5857
aVdepartmental
p5858
aVarson
p5859
aVsometimes
p5860
aVbarred
p5861
aVoccupation
p5862
aVknowledgeable
p5863
aVserua
p5864
aVproject
p5865
aV15th
p5866
aVlast
p5867
aVsadal
p5868
aVthinking
p5869
aVconnection
p5870
aVaforethought
p5871
aVcontemporaneous
p5872
aVlender
p5873
aVinfect
p5874
aVvol
p5875
aVdiscontinue
p5876
aVwaqadra
p5877
aVrecoverable
p5878
aVdispassionately
p5879
aVemergency
p5880
aVemergence
p5881
aVabduct
p5882
aVparietal
p5883
aVsummarise
p5884
aVsharma
p5885
aVdischarge
p5886
aVchd
p5887
aVwainadoi
p5888
aVmelbourne
p5889
aVvolavola
p5890
aVcontributor
p5891
aVspan
p5892
aVspar
p5893
aVconsiderably
p5894
aVbutler
p5895
aVconsiderable
p5896
aVchronology
p5897
aVinhumane
p5898
aVmaturity
p5899
aVchad
p5900
aVunsafe
p5901
aVglobally
p5902
aVchap
p5903
aVdiverse
p5904
aVquestionnaire
p5905
aVoblige
p5906
aVcama
p5907
aVlang
p5908
aVlane
p5909
aVland
p5910
aVbeverage
p5911
aVmarawai
p5912
aVincorporate
p5913
aVbroaden
p5914
aVresourced
p5915
aVexpeditious
p5916
aVmistry
p5917
aVhenceforth
p5918
aVthats
p5919
aV1998s
p5920
aV1939
p5921
aVnext
p5922
aVeleven
p5923
aVbaba
p5924
aVbabu
p5925
aVbaby
p5926
aVprocess
p5927
aVlock
p5928
aVeducational
p5929
aVdenounce
p5930
aVsereka
p5931
aVperfect
p5932
aVmeantime
p5933
aVunliquidated
p5934
aVrealize
p5935
aVcorruptly
p5936
aVinvolvement
p5937
aVdeficiency
p5938
aVfundamentally
p5939
aVyour
p5940
aVincompetence
p5941
aVburke
p5942
aVchilli
p5943
aVlength
p5944
aVratification
p5945
aVassumed
p5946
aV1340
p5947
aVscene
p5948
aVfestival
p5949
aVsergeant
p5950
aVegregious
p5951
aVtaken
p5952
aVuncalled
p5953
aVworldwide
p5954
aVjay
p5955
aVjaw
p5956
aVterminal
p5957
aVjam
p5958
aVjai
p5959
aVprohibition
p5960
aVlawfully
p5961
aVposse
p5962
aVconclude
p5963
aVexaggerate
p5964
aVcountry
p5965
aV584
p5966
aVdenial
p5967
aVpaula
p5968
aVidentity
p5969
aVaudit
p5970
aVindonesia
p5971
aVaudio
p5972
aVweb
p5973
aVwet
p5974
aVcontradictory
p5975
aVpreclude
p5976
aVchoosing
p5977
aVcontested
p5978
aVpressure
p5979
aVlifestyle
p5980
aVlocation
p5981
aVdocumentary
p5982
aVadvert
p5983
aVwatchman
p5984
aVmataqali
p5985
aVdeadly
p5986
aVrepeat
p5987
aVworker
p5988
aVrepeal
p5989
aVenforceable
p5990
aVfortiori
p5991
aVonus
p5992
aValleviation
p5993
aVtevita
p5994
aVinvestigator
p5995
aVroadblock
p5996
aVdeadline
p5997
aVresidual
p5998
aVprotection
p5999
aVobtained
p6000
aVsocioeconomic
p6001
aVsocietys
p6002
aVliaquat
p6003
aV078
p6004
aVyard
p6005
aVimpair
p6006
aVindicates
p6007
aVrecovery
p6008
aVtruthful
p6009
aVelusive
p6010
aValienate
p6011
aVappreciate
p6012
aVcoffee
p6013
aVsafe
p6014
aVcollide
p6015
aVpenetration
p6016
aVlifelong
p6017
aVvinod
p6018
aVpeacebuilding
p6019
aVrefugee
p6020
aVrenew
p6021
aVrender
p6022
aVelectronic
p6023
aVapproximately
p6024
aVintermediate
p6025
aVjohn
p6026
aVwasted
p6027
aVpolicymaking
p6028
aVenhancement
p6029
aVattributable
p6030
aVunsecured
p6031
aVnobody
p6032
aVbruce
p6033
aVgermany
p6034
aVassessed
p6035
aVgrave
p6036
aValcatel
p6037
aVlewis
p6038
aVintergovernmental
p6039
aVnullifies
p6040
aVdegradation
p6041
aVsecretary
p6042
aVaway
p6043
aVmisguided
p6044
aVclimate
p6045
aVapplicability
p6046
aV35th
p6047
aVcylinder
p6048
aVhave
p6049
aVtissue
p6050
aVconf
p6051
aVwheel
p6052
aVhang
p6053
aVhand
p6054
aVmediator
p6055
aVshout
p6056
aVunfounded
p6057
aVtrained
p6058
aVborn
p6059
aVoffer
p6060
aVbore
p6061
aVconfusing
p6062
aVsimione
p6063
aVparticipation
p6064
aVelucidate
p6065
aVsubstitution
p6066
aVpeer
p6067
aVwasting
p6068
aVprofession
p6069
aVdeception
p6070
aVconnote
p6071
aVavailable
p6072
aVconservation
p6073
aVwrongdoing
p6074
aVdiligence
p6075
aVmaximum
p6076
aVprayed
p6077
aVexpertise
p6078
aVprayer
p6079
aVharassment
p6080
aVsiege
p6081
aVupdate
p6082
aVinterval
p6083
aVcohesion
p6084
aVsupplement
p6085
aVcontributing
p6086
aVmetuisela
p6087
aV12th
p6088
aVagitate
p6089
aVcost
p6090
aVpillow
p6091
aVfrazer
p6092
aVfirearm
p6093
aVoccur
p6094
aVeconomy
p6095
aVproduct
p6096
aVproduce
p6097
aVserving
p6098
aVaffirms
p6099
aVfactual
p6100
aVnon
p6101
aVintroduce
p6102
aVwealthy
p6103
aVnot
p6104
aVnov
p6105
aVnow
p6106
aVnor
p6107
aVnos
p6108
aVvexation
p6109
aVfurthermore
p6110
aV519
p6111
aV518
p6112
aVinvitation
p6113
aV511
p6114
aV510
p6115
aV513
p6116
aV512
p6117
aV515
p6118
aV514
p6119
aV517
p6120
aV516
p6121
aVblind
p6122
aVconstantly
p6123
aVring
p6124
aVremotely
p6125
aVshakuntala
p6126
aVrepossess
p6127
aVcommendable
p6128
aVrecruit
p6129
aVimpinge
p6130
aVequipment
p6131
aVamerica
p6132
aVimposition
p6133
aVsteady
p6134
aVmrs
p6135
aViccpr
p6136
aVstair
p6137
aVstain
p6138
aVinterstate
p6139
aVmedway
p6140
aVactively
p6141
aVdigicel
p6142
aVgazette
p6143
aVimport
p6144
aVorchestrate
p6145
aVresides
p6146
aVattache
p6147
aVimpugn
p6148
aVtextbook
p6149
aVsuspected
p6150
aVequal
p6151
aVinquire
p6152
aVinquiry
p6153
aVrahiman
p6154
aValleviate
p6155
aVtaxi
p6156
aVlivestock
p6157
aVversa
p6158
aVami
p6159
aVlaundering
p6160
aVpsc
p6161
aVamy
p6162
aVconveyancing
p6163
aVtwelve
p6164
aVhemorrhage
p6165
aVregina
p6166
aV1852
p6167
aVassembly
p6168
aVsixth
p6169
aVinnocence
p6170
aVsixty
p6171
aVkapi
p6172
aVstark
p6173
aVstart
p6174
aVsmuggling
p6175
aVdelayed
p6176
aVrja
p6177
aVfraud
p6178
aVdefault
p6179
aVanomaly
p6180
aVnarend
p6181
aVregistry
p6182
aVmonth
p6183
aVsustain
p6184
aVhorror
p6185
aVtamanisau
p6186
aVenjoin
p6187
aVhamper
p6188
aVlearner
p6189
aVpauliasi
p6190
aVlearned
p6191
aVanlaby
p6192
aVarena
p6193
aVconviction
p6194
aVreena
p6195
aVmarginal
p6196
aVconventional
p6197
aVrevelation
p6198
aVoutpatient
p6199
aV7000
p6200
aVgrill
p6201
aV740
p6202
aV741
p6203
aV742
p6204
aV743
p6205
aV744
p6206
aV745
p6207
aV747
p6208
aV748
p6209
aV749
p6210
aVphrase
p6211
aVutilize
p6212
aVvigilance
p6213
aVundergo
p6214
aVnbf
p6215
aVterritorial
p6216
aVced
p6217
aVceo
p6218
aVpermissible
p6219
aVpunitive
p6220
aVwedlock
p6221
aVtestify
p6222
aVequate
p6223
aVsafety
p6224
aVunresolved
p6225
aVindivisibility
p6226
aVhorse
p6227
aVstation
p6228
aVatunaisa
p6229
aVhundred
p6230
aV1919
p6231
aV1918
p6232
aV1911
p6233
aVconsonant
p6234
aV1912
p6235
aV1915
p6236
aV1914
p6237
aV1917
p6238
aV1916
p6239
aVgrey
p6240
aVprocedural
p6241
aVnull
p6242
aVcave
p6243
aVcava
p6244
aV2001l
p6245
aVnaiveli
p6246
aVqbd
p6247
aVbalelala
p6248
aVjeopardy
p6249
aVtranslation
p6250
aVjustice
p6251
aVfinancing
p6252
aVnarain
p6253
aVretaliation
p6254
aVculture
p6255
aVkiran
p6256
aVclose
p6257
aVmissing
p6258
aVspray
p6259
aVaggrieve
p6260
aVadesh
p6261
aV289
p6262
aVvunimoli
p6263
aVthreaten
p6264
aVmisconceive
p6265
aVliver
p6266
aV280
p6267
aVpace
p6268
aVought
p6269
aVguide
p6270
aVpack
p6271
aVcostly
p6272
aV00l
p6273
aV00s
p6274
aV003
p6275
aV002
p6276
aV001
p6277
aV000
p6278
aV007
p6279
aV006
p6280
aV005
p6281
aV004
p6282
aV009
p6283
aV008
p6284
aVconsistence
p6285
aVconsistency
p6286
aVbearer
p6287
aVdisseminate
p6288
aVscrutton
p6289
aVmulticultural
p6290
aVpopular
p6291
aVeconomic
p6292
aVwati
p6293
aVwidgery
p6294
aVapproved
p6295
aVledua
p6296
aVinjection
p6297
aVprobate
p6298
aVtheoretical
p6299
aVaccessibility
p6300
aVsurmise
p6301
aVvires
p6302
aVdaunivalu
p6303
aVarithmetic
p6304
aVdvd
p6305
aVignorant
p6306
aVimprecise
p6307
aVhurricane
p6308
aVfriendly
p6309
aVwave
p6310
aVmichael
p6311
aVvillager
p6312
aVconvert
p6313
aVmataki
p6314
aVhistorically
p6315
aVformally
p6316
aVvisibility
p6317
aVappointed
p6318
aVlapse
p6319
aV238
p6320
aV234
p6321
aV237
p6322
aV230
p6323
aVfare
p6324
aV0023
p6325
aV0021
p6326
aV0027
p6327
aV0025
p6328
aVfarm
p6329
aVticket
p6330
aVtemporal
p6331
aVlithuania
p6332
aVinterdependence
p6333
aVinvestigative
p6334
aVkapoor
p6335
aVentertainment
p6336
aVcause
p6337
aVevidential
p6338
aVdetermining
p6339
aVpowerful
p6340
aVwainiqolo
p6341
aVankle
p6342
aVplausible
p6343
aVsuccinctly
p6344
aVordinarily
p6345
aVrelatives
p6346
aVluisa
p6347
aVsc
p6348
aVsa
p6349
aVinsured
p6350
aVfjd
p6351
aVgest
p6352
aVconstrain
p6353
aVwilful
p6354
aVwatch
p6355
aVespecially
p6356
aVachieve
p6357
aVwidow
p6358
aValbania
p6359
aVimmigrant
p6360
aVoperated
p6361
aVtend
p6362
aVtendency
p6363
aVgeorge
p6364
aVconstituted
p6365
aVdenning
p6366
aVtort
p6367
aVjudicature
p6368
aVparte
p6369
aVparty
p6370
aVimpeccable
p6371
aVdestruction
p6372
aVscarcely
p6373
aVashley
p6374
aVadvertised
p6375
aVloss
p6376
aVnecessary
p6377
aVlost
p6378
aVfernando
p6379
aVlose
p6380
aVlibrary
p6381
aVhome
p6382
aVbroad
p6383
aVoverlap
p6384
aVreaching
p6385
aVrefuge
p6386
aVpreviously
p6387
aVtikaram
p6388
aVfrancis
p6389
aVnorth
p6390
aVmutiny
p6391
aVowing
p6392
aVdisplay
p6393
aVdiligently
p6394
aVuniversal
p6395
aVlautoka
p6396
aVstar
p6397
aVstay
p6398
aVstab
p6399
aVadditionally
p6400
aV8000
p6401
aVdisability
p6402
aVcommunique
p6403
aVlikely
p6404
aVsubordinate
p6405
aVmyanmar
p6406
aVtertiary
p6407
aV344
p6408
aV347
p6409
aVsurvive
p6410
aV342
p6411
aV343
p6412
aV348
p6413
aV349
p6414
aViliesa
p6415
aV688
p6416
aV685
p6417
aV687
p6418
aVoperate
p6419
aV681
p6420
aV680
p6421
aVbefore
p6422
aVarrested
p6423
aVventilation
p6424
aVcalmly
p6425
aVakhtar
p6426
aV00am
p6427
aVkelera
p6428
aVvenezuela
p6429
aVtelecommunication
p6430
aVresume
p6431
aVintersex
p6432
aVjja
p6433
aVconvene
p6434
aVdatabase
p6435
aVmitigating
p6436
aVfitting
p6437
aVhide
p6438
aVobservation
p6439
aVizaz
p6440
aVconfiscation
p6441
aVchristopher
p6442
aVearl
p6443
aVearn
p6444
aVartificial
p6445
aV44th
p6446
aVcousin
p6447
aVsuggested
p6448
aVpresumably
p6449
aVbasis
p6450
aVcommission
p6451
aVtrigger
p6452
aVdetrimental
p6453
aVinterest
p6454
aVdismiss
p6455
aVdeepen
p6456
aVaffirm
p6457
aVsettler
p6458
aVseven
p6459
aVallen
p6460
aVsever
p6461
aVfinalize
p6462
aVtavua
p6463
aVinherit
p6464
aV801
p6465
aV805
p6466
aVyen
p6467
aVyee
p6468
aVyes
p6469
aV32
p6470
aVsavu
p6471
aVroyal
p6472
aVsave
p6473
aVkyrgyzstan
p6474
aVcoincide
p6475
aVsomehow
p6476
aVelderly
p6477
aVmucunabitu
p6478
aVkaweendra
p6479
aVprevents
p6480
aVoliver
p6481
aVanswerable
p6482
aVjourney
p6483
aVweekend
p6484
aVjacket
p6485
aVsarju
p6486
aV21st
p6487
aVanticipation
p6488
aVadviser
p6489
aVadvised
p6490
aVround
p6491
aVunexpected
p6492
aVdealing
p6493
aVbombardment
p6494
aVinternational
p6495
aVshankar
p6496
aVmerely
p6497
aVsake
p6498
aVvisit
p6499
aVmaking
p6500
aV146
p6501
aV147
p6502
aV144
p6503
aV145
p6504
aV142
p6505
aV143
p6506
aV140
p6507
aV141
p6508
aV148
p6509
aV149
p6510
aVequip
p6511
aVpeterson
p6512
aVgroup
p6513
aVmonitor
p6514
aVinteresting
p6515
aVworkload
p6516
aVnswca
p6517
aVpromulgate
p6518
aVcareless
p6519
aVinvolves
p6520
aVstitch
p6521
aVpriest
p6522
aVinaction
p6523
aVbanuve
p6524
aVregistrar
p6525
aVinvalidity
p6526
aVspecificity
p6527
aVfacilitation
p6528
aVadjourned
p6529
aVallegedly
p6530
aVmemo
p6531
aVillegality
p6532
aVeasement
p6533
aVlick
p6534
aVmodality
p6535
aVbailee
p6536
aVperformance
p6537
aVregistered
p6538
aVincidence
p6539
aVplumbing
p6540
aVamit
p6541
aVostensibly
p6542
aVawareness
p6543
aVunimportant
p6544
aVadhere
p6545
aVmorning
p6546
aVaudited
p6547
aVunaltered
p6548
aVadjudge
p6549
aVcleaning
p6550
aVenough
p6551
aVcautiously
p6552
aVnationality
p6553
aVtaloga
p6554
aVcognizance
p6555
aVamong
p6556
aVmultidisciplinary
p6557
aVconsider
p6558
aVdeclaration
p6559
aVsound
p6560
aVcancelled
p6561
aVsleeping
p6562
aVstrain
p6563
aVsudden
p6564
aVpurportedly
p6565
aVaau0015
p6566
aVaau0011
p6567
aVassist
p6568
aVcompanion
p6569
aVnam
p6570
aVelectrical
p6571
aVpriyantha
p6572
aVfooting
p6573
aVknife
p6574
aVskilled
p6575
aVarranged
p6576
aVimagination
p6577
aVagain
p6578
aVneighbouring
p6579
aVfounded
p6580
aVlaid
p6581
aVsitting
p6582
aVnewly
p6583
aVwashing
p6584
aVpearce
p6585
aVdistr
p6586
aV20th
p6587
aVperspective
p6588
aVresidue
p6589
aVdefence
p6590
aVmalaria
p6591
aVgovernance
p6592
aVspecialized
p6593
aVrobinson
p6594
aVnarrowly
p6595
aVbau
p6596
aVquestioning
p6597
aVcoming
p6598
aVthrough
p6599
aVshareholding
p6600
aVsocially
p6601
aVnamibia
p6602
aVvuli
p6603
aVvula
p6604
aVbeginning
p6605
aVjocelynne
p6606
aVdevi
p6607
aVunmeritorious
p6608
aVcell
p6609
aVexpress
p6610
aVrest
p6611
aVemolument
p6612
aVexpert
p6613
aVdebar
p6614
aVrestaurant
p6615
aV2in
p6616
aVroshni
p6617
aVtraditionally
p6618
aVtask
p6619
aVmainavolau
p6620
aVthoroughly
p6621
aVshape
p6622
aValternative
p6623
aVcut
p6624
aVcup
p6625
aVdanger
p6626
aVsource
p6627
aVhabeas
p6628
aVhowell
p6629
aVunhindered
p6630
aVabsolutely
p6631
aVdelegation
p6632
aVdecision
p6633
aVtotogo
p6634
aVdepose
p6635
aVinvite
p6636
aVsubsidiary
p6637
aVplanet
p6638
aVorganizational
p6639
aVbecomes
p6640
aVrestoration
p6641
aVextranet
p6642
aVcompose
p6643
aVimplicitly
p6644
aVverandah
p6645
aVceasefire
p6646
aVappend
p6647
aVbail
p6648
aVaccess
p6649
aVpleading
p6650
aVclimb
p6651
aVhonor
p6652
aV543
p6653
aVdefendant
p6654
aVrehabilitation
p6655
aV94s
p6656
aV949
p6657
aV942
p6658
aV940
p6659
aVdespite
p6660
aVitemize
p6661
aVapplicants
p6662
aV10pm
p6663
aV10pt
p6664
aVapologize
p6665
aVchaitanya
p6666
aVqua
p6667
aVclarify
p6668
aVque
p6669
aVqui
p6670
aVquo
p6671
aVbackwards
p6672
aVallied
p6673
aVvagina
p6674
aVexplanation
p6675
aVacquire
p6676
aVknowles
p6677
aVthroat
p6678
aVincentive
p6679
aVenactment
p6680
aVinexperienced
p6681
aVjitendra
p6682
aVprocure
p6683
aVclive
p6684
aVunreliable
p6685
aVprolong
p6686
aVregularly
p6687
aVpave
p6688
aVfixed
p6689
aVreform
p6690
aVboundary
p6691
aVmandamus
p6692
aVdelusion
p6693
aVpartner
p6694
aVproductivity
p6695
aVdiscredited
p6696
aVnevertheless
p6697
aVbuilder
p6698
aVexcise
p6699
aV288
p6700
aV281
p6701
aV283
p6702
aV282
p6703
aV285
p6704
aV284
p6705
aV286
p6706
aVdisplaced
p6707
aVjurisprudence
p6708
aVmagnitude
p6709
aVfemale
p6710
aVcartage
p6711
aVsequel
p6712
aVmeasure
p6713
aVdawson
p6714
aVcorporation
p6715
aVmass
p6716
aVxxx
p6717
aVcheque
p6718
aVsalendra
p6719
aVundisputed
p6720
aVdispense
p6721
aVschool
p6722
aVconceive
p6723
aVdisciplined
p6724
aVblue
p6725
aVsupplier
p6726
aVgaol
p6727
aVridicule
p6728
aVculminate
p6729
aVsettled
p6730
aVwould
p6731
aVth
p6732
aVmuaror
p6733
aVadvocacy
p6734
aVappointment
p6735
aVlegislate
p6736
aVelizabeth
p6737
aVlump
p6738
aVcorollary
p6739
aVpreventive
p6740
aV407
p6741
aV406
p6742
aV405
p6743
aV404
p6744
aV403
p6745
aV402
p6746
aV401
p6747
aV400
p6748
aV409
p6749
aV408
p6750
aV17th
p6751
aVrental
p6752
aVcable
p6753
aVconsolidate
p6754
aVsaturday
p6755
aVlarge
p6756
aVaforesaid
p6757
aVunderneath
p6758
aVprimary
p6759
aVfantasy
p6760
aVconfirming
p6761
aVcorpus
p6762
aVreparation
p6763
aVilliterate
p6764
aVfinal
p6765
aVocean
p6766
aVbrandon
p6767
aVexactly
p6768
aVelsworth
p6769
aVlyle
p6770
aValight
p6771
aVreissue
p6772
aVproposed
p6773
aVspite
p6774
aVwedding
p6775
aVgenerally
p6776
aVcontinually
p6777
aVgrandmother
p6778
aVdiscovery
p6779
aVhowever
p6780
aVnews
p6781
aVconference
p6782
aVkumari
p6783
aVxxv
p6784
aVkumars
p6785
aVniko
p6786
aVforehead
p6787
aVimpediment
p6788
aVjean
p6789
aVbruise
p6790
aVenlighten
p6791
aVburnt
p6792
aVcontradict
p6793
aVaxiomatic
p6794
aVallocate
p6795
aVbrawl
p6796
aVpathik
p6797
aVdinner
p6798
aVensure
p6799
aVbath
p6800
aVdissenting
p6801
aVpayable
p6802
aVencumber
p6803
aVwhen
p6804
aVworkmate
p6805
aVcaveatee
p6806
aVsetting
p6807
aVsuture
p6808
aVliquidate
p6809
aVundoubted
p6810
aVimpression
p6811
aVclarification
p6812
aVpassage
p6813
aVunfamiliar
p6814
aVincitement
p6815
aVimpressive
p6816
aVlevel
p6817
aVlever
p6818
aVinjunction
p6819
aVport
p6820
aVentertain
p6821
aVwinner
p6822
aVbribery
p6823
aVemployer
p6824
aVabbas
p6825
aVnursing
p6826
aVmustill
p6827
aVvital
p6828
aVvodafone
p6829
aVoverall
p6830
aVislamic
p6831
aVfunctus
p6832
aVinform
p6833
aVrepresentation
p6834
aVmagistrate
p6835
aVabet
p6836
aVqualifies
p6837
aVqualified
p6838
aVimportation
p6839
aVintercourse
p6840
aVunsound
p6841
aVturn
p6842
aVaccruing
p6843
aVsailasa
p6844
aVreinforce
p6845
aVswitzerland
p6846
aVsure
p6847
aVlater
p6848
aVraja
p6849
aVpursuant
p6850
aVraju
p6851
aVgulf
p6852
aVvoluntary
p6853
aVcontract
p6854
aVrailway
p6855
aV1216
p6856
aVandrew
p6857
aVspirit
p6858
aVpilot
p6859
aVsometime
p6860
aVweek
p6861
aVdirector
p6862
aVdelicate
p6863
aVrelies
p6864
aVwithout
p6865
aVrelief
p6866
aVinability
p6867
aVninth
p6868
aVpw1s
p6869
aVjewellery
p6870
aVcompetition
p6871
aVluxembourg
p6872
aVporter
p6873
aVdiscussed
p6874
aVthere
p6875
aVrelocation
p6876
aValleged
p6877
aValleges
p6878
aVwholesale
p6879
aVgrasp
p6880
aVgrass
p6881
aVisimeli
p6882
aVonerous
p6883
aVwife
p6884
aVmeditation
p6885
aVextraneous
p6886
aVdairy
p6887
aVlist
p6888
aVindemnity
p6889
aVescalation
p6890
aVinvention
p6891
aVeminent
p6892
aVversion
p6893
aVintersect
p6894
aVchristian
p6895
aVtragedy
p6896
aVnaval
p6897
aVnavau
p6898
aVrenwick
p6899
aVflat
p6900
aVflaw
p6901
aVhoffman
p6902
aVflag
p6903
aVordinance
p6904
aVokay
p6905
aVflip
p6906
aVlighting
p6907
aVcontingency
p6908
aVshort
p6909
aVsupervision
p6910
aVshore
p6911
aVavenue
p6912
aVthirtieth
p6913
aVhac0028
p6914
aVmattress
p6915
aVhunter
p6916
aVweight
p6917
aVganesh
p6918
aValcohol
p6919
aVfriday
p6920
aVintroduction
p6921
aVecuador
p6922
aVrifle
p6923
aVnaqa
p6924
aVexert
p6925
aVelectric
p6926
aVtraditional
p6927
aVenforceability
p6928
aVrestore
p6929
aVsamabula
p6930
aVcote
p6931
aVprecaution
p6932
aVdefense
p6933
aVbibi
p6934
aVsweet
p6935
aVharbour
p6936
aVvillage
p6937
aVbeforehand
p6938
aVdemand
p6939
aVfrozen
p6940
aVprobationary
p6941
aVconcurrently
p6942
aVcredence
p6943
aVobstacle
p6944
aVimpede
p6945
aVburden
p6946
aVsystematically
p6947
aVadmittedly
p6948
aVcollect
p6949
aVmaxim
p6950
aVaffordability
p6951
aVcautious
p6952
aVrange
p6953
aVpurporting
p6954
aVwilberforce
p6955
aVentitlement
p6956
aVquestion
p6957
aVredress
p6958
aVinstantly
p6959
aVcromptons
p6960
aVhamid
p6961
aVdalo
p6962
aVdanford
p6963
aValien
p6964
aVgang
p6965
aVgani
p6966
aVcases
p6967
aVbreach
p6968
aVconfirmation
p6969
aVmainstream
p6970
aVmiriama
p6971
aVfold
p6972
aVfoll
p6973
aVunavailable
p6974
aV19th
p6975
aVdegree
p6976
aVsurvivor
p6977
aVdistressed
p6978
aVguarantor
p6979
aVwriter
p6980
aVvola
p6981
aVfalsity
p6982
aVapp
p6983
aVapt
p6984
aVexamination
p6985
aVconstitutionally
p6986
aVtimetable
p6987
aVexecutor
p6988
aVdissolve
p6989
aVsyndrome
p6990
aVscarring
p6991
aVjustifiable
p6992
aVjustifiably
p6993
aVattend
p6994
aV1889
p6995
aV1887
p6996
aV1886
p6997
aV1885
p6998
aV1884
p6999
aV1883
p7000
aV1882
p7001
aV1881
p7002
aV1880
p7003
aVeritrea
p7004
aVholiday
p7005
aVprogressive
p7006
aVout
p7007
aVacknowledgment
p7008
aVsentiment
p7009
aVcrc
p7010
aVcerebral
p7011
aVdisclose
p7012
aVdoubtless
p7013
aVkaur
p7014
aVtenement
p7015
aVtenant
p7016
aVpublicly
p7017
aVdiminish
p7018
aVobjectionable
p7019
aVfilipe
p7020
aVcollaboration
p7021
aVagreed
p7022
aVsenegal
p7023
aVfear
p7024
aVagrees
p7025
aVmahendra
p7026
aVlocal
p7027
aVburglary
p7028
aVdifferential
p7029
aVwaisea
p7030
aVavoidable
p7031
aVascertain
p7032
aVsaqasaqa
p7033
aVrequirement
p7034
aVhumiliation
p7035
aVcruel
p7036
aVfavor
p7037
aVidentification
p7038
aVability
p7039
aVopening
p7040
aVtakeover
p7041
aVmalimali
p7042
aV728
p7043
aVtactical
p7044
aVunclear
p7045
aVdiminution
p7046
aV733
p7047
aV732
p7048
aV737
p7049
aV739
p7050
aVgeneral
p7051
aVscrutiny
p7052
aVserupepeli
p7053
aVfearful
p7054
aVthus
p7055
aVperhaps
p7056
aVjitoko
p7057
aVgeographical
p7058
aVdifficult
p7059
aVhaa080
p7060
aVslave
p7061
aVundertakes
p7062
aVcontest
p7063
aVundertaken
p7064
aVexcessive
p7065
aVuntested
p7066
aVdavuilevu
p7067
aVwestminster
p7068
aVfacial
p7069
aVpress
p7070
aVexhaustively
p7071
aVflagrant
p7072
aVarjun
p7073
aVvicarious
p7074
aVemployment
p7075
aVvesting
p7076
aVsemisi
p7077
aV160
p7078
aVweather
p7079
aVpromise
p7080
aVdistract
p7081
aVincredible
p7082
aVgoat
p7083
aVknee
p7084
aVsystematic
p7085
aVdeport
p7086
aVelectricity
p7087
aVunanswered
p7088
aVsuccession
p7089
aVreframe
p7090
aVstraight
p7091
aVcharter
p7092
aVpharmacy
p7093
aVshocked
p7094
aVinterdependent
p7095
aVmilitary
p7096
aVdivide
p7097
aVsummons
p7098
aV059
p7099
aV050
p7100
aVrelay
p7101
aVrelax
p7102
aV05s
p7103
aVblade
p7104
aVorganized
p7105
aVdyke
p7106
aVleniency
p7107
aVdiagram
p7108
aVeffective
p7109
aVscourge
p7110
aVmisdemeanor
p7111
aVvary
p7112
aV870
p7113
aVhidden
p7114
aVdetachment
p7115
aVstructural
p7116
aVinterfering
p7117
aVexpectancy
p7118
aVdisplacement
p7119
aVwaive
p7120
aVupbringing
p7121
aValert
p7122
aVknit
p7123
aVavinesh
p7124
aVmisplace
p7125
aVwash
p7126
aVinstruct
p7127
aVlisted
p7128
aVunderlie
p7129
aVlisten
p7130
aVgeneva
p7131
aVpredictable
p7132
aVentail
p7133
aVsummarily
p7134
aVconcrete
p7135
aVeven
p7136
aVvictoria
p7137
aVipsa
p7138
aVletter
p7139
aVipso
p7140
aVepisode
p7141
aVnominated
p7142
aVasia
p7143
aVrespond
p7144
aVmandatory
p7145
aVdisaster
p7146
aVfair
p7147
aVfaiz
p7148
aVfail
p7149
aVtestamentary
p7150
aVactive
p7151
aV258
p7152
aV252
p7153
aV253
p7154
aV250
p7155
aV251
p7156
aV256
p7157
aV257
p7158
aV254
p7159
aV255
p7160
aVpenalize
p7161
aVsurendra
p7162
aVconfinement
p7163
aVtrusted
p7164
aVtrustee
p7165
aVcumulative
p7166
aVfairly
p7167
aVpermit
p7168
aVintrusion
p7169
aVsectoral
p7170
aVdisguise
p7171
aVfinancially
p7172
aVdpps
p7173
aVcampaign
p7174
aVformal
p7175
aVpossible
p7176
aVpossibly
p7177
aVunique
p7178
aVcommonplace
p7179
aVuma
p7180
aVdental
p7181
aVcitizens
p7182
aVdonation
p7183
aVrebut
p7184
aVdefendants
p7185
aVunambiguous
p7186
aVeast
p7187
aVavail
p7188
aVwidth
p7189
aVtherefrom
p7190
aVannum
p7191
aVcircumstantial
p7192
aVpalm
p7193
aVproved
p7194
aVproven
p7195
aVangola
p7196
aVactor
p7197
aVunambiguously
p7198
aVprotester
p7199
aVwindscreen
p7200
aVbangladesh
p7201
aVvet
p7202
aVsuspending
p7203
aVtear
p7204
aVteam
p7205
aVprevent
p7206
aVunrepresented
p7207
aVeducate
p7208
aVillegally
p7209
aVmolestation
p7210
aVthereunder
p7211
aVlove
p7212
aVlovu
p7213
aVforefront
p7214
aVtightly
p7215
aVarvind
p7216
aVvisual
p7217
aVdegrade
p7218
aVinvolve
p7219
aVpreponderance
p7220
aVvaluer
p7221
aVsenikuraciri
p7222
aVcursory
p7223
aVwrite
p7224
aVspot
p7225
aVhiring
p7226
aVyakub
p7227
aVpetition
p7228
aVquod
p7229
aVcourse
p7230
aVhcr
p7231
aVcontainer
p7232
aVhca
p7233
aVnswlr
p7234
aVbarrister
p7235
aVrecompense
p7236
aVpotter
p7237
aVindicate
p7238
aVinactivity
p7239
aVshailesh
p7240
aVmangal
p7241
aVmaintain
p7242
aVxml
p7243
aV2002l
p7244
aVfortify
p7245
aV16th
p7246
aVup
p7247
aVincapacity
p7248
aVascertainable
p7249
aVscrutinise
p7250
aVundermine
p7251
aVdislocation
p7252
aVthousand
p7253
aVperpetuate
p7254
aVreliefs
p7255
aVbreakdown
p7256
aVintimidation
p7257
aVharris
p7258
aVwpc
p7259
aVvacant
p7260
aVunderline
p7261
aVprominently
p7262
aVcondone
p7263
aVretract
p7264
aVdemised
p7265
aVamputation
p7266
aVlebanon
p7267
aVracial
p7268
aVtube
p7269
aVindustry
p7270
aVpracticable
p7271
aVimage
p7272
aVrectification
p7273
aVtechnically
p7274
aVtamavua
p7275
aVsite
p7276
aVpolitically
p7277
aVbehest
p7278
aVadministers
p7279
aVcontend
p7280
aVcongress
p7281
aVinaccuracy
p7282
aVmenace
p7283
aVoriginal
p7284
aVimproperly
p7285
aVcontent
p7286
aVpremeditation
p7287
aVcondition
p7288
aVfacsimile
p7289
aVinculpatory
p7290
aVcanvass
p7291
aVsection
p7292
aVnurse
p7293
aVcontrast
p7294
aV09th
p7295
aVpick
p7296
aVaction
p7297
aVsmuggle
p7298
aVcoercion
p7299
aV850
p7300
aV853
p7301
aVrelevant
p7302
aVveisari
p7303
aVapportion
p7304
aVscience
p7305
aVsense
p7306
aVinformation
p7307
aVunattended
p7308
aVcreature
p7309
aVsignature
p7310
aVgeographic
p7311
aVgranted
p7312
aVfraser
p7313
aVtravelling
p7314
aVpropose
p7315
aVmisuse
p7316
aValways
p7317
aVtransmission
p7318
aVdeplete
p7319
aVeve
p7320
aVanxious
p7321
aVhighway
p7322
aVexpedient
p7323
aVsinclair
p7324
aVnumber
p7325
aVthreatening
p7326
aVcheckpoint
p7327
aVappreciation
p7328
aVlicensee
p7329
aVlicensed
p7330
aVgrace
p7331
aVdetermines
p7332
aVdetermined
p7333
aVmarriage
p7334
aVsurya
p7335
aVplay
p7336
aVrehear
p7337
aVsession
p7338
aVimpact
p7339
aVindicator
p7340
aVpeculiar
p7341
aVfailed
p7342
aVclosely
p7343
aVcroatia
p7344
aVvodokisolomone
p7345
aVavoidance
p7346
aVpostponement
p7347
aVwhole
p7348
aVconnexion
p7349
aVacceptance
p7350
aVfirm
p7351
aVfire
p7352
aVmoti
p7353
aVvotualevu
p7354
aVmoto
p7355
aV2030
p7356
aVinordinate
p7357
aVfocal
p7358
aVrecent
p7359
aVsixtieth
p7360
aVclearance
p7361
aV1913
p7362
aVdesist
p7363
aVpertinent
p7364
aVirresistible
p7365
aVinclination
p7366
aVbe
p7367
aVba
p7368
aVbc
p7369
aVagreement
p7370
aVbv
p7371
aVbw
p7372
aVtower
p7373
aVprimarily
p7374
aVdriscoll
p7375
aV1999l
p7376
aVspecifically
p7377
aV1999s
p7378
aVlink
p7379
aVline
p7380
aVdefined
p7381
aVconcealment
p7382
aVdefines
p7383
aVwrongly
p7384
aVmood
p7385
aVcode
p7386
aVdislike
p7387
aVmoot
p7388
aVincidentally
p7389
aVproffer
p7390
aVled
p7391
aVlee
p7392
aVleg
p7393
aVlen
p7394
aVlet
p7395
aVley
p7396
aV339
p7397
aV338
p7398
aV337
p7399
aV336
p7400
aV330
p7401
aV333
p7402
aVstanding
p7403
aVdoubt
p7404
aVyardstick
p7405
aVconfiscate
p7406
aVmackman
p7407
aVreproduce
p7408
aVjoape
p7409
aVbent
p7410
aVbend
p7411
aVreynolds
p7412
aVconnors
p7413
aVawait
p7414
aVallot
p7415
aVallow
p7416
aVnadi
p7417
aVsufficiently
p7418
aVthirteen
p7419
aVbae
p7420
aVreoffend
p7421
aVsurely
p7422
aVdavid
p7423
aVdavis
p7424
aVadopts
p7425
aVmegaw
p7426
aVbriefing
p7427
aVmischief
p7428
aVlatchman
p7429
aVmanchester
p7430
aVlloyd
p7431
aVreid
p7432
aVtemporarily
p7433
aVderogatory
p7434
aVapted
p7435
aVharish
p7436
aV579
p7437
aV573
p7438
aV572
p7439
aV571
p7440
aV570
p7441
aV577
p7442
aV576
p7443
aV575
p7444
aV574
p7445
aV2018
p7446
aV2016
p7447
aVsurprisingly
p7448
aVcontribution
p7449
aVshelvin
p7450
aVdock
p7451
aVcommand
p7452
aVseaqaqa
p7453
aVvuki
p7454
aVresidential
p7455
aVpresidential
p7456
aVjaswant
p7457
aVcomplicity
p7458
aVchancellor
p7459
aVstagger
p7460
aVreplacement
p7461
aVthief
p7462
aVashika
p7463
aVtransport
p7464
aVavoid
p7465
aVdemarcate
p7466
aViliaseri
p7467
aVsister
p7468
aVdishonour
p7469
aVrarawai
p7470
aVcommitment
p7471
aVdisapproval
p7472
aVslovakia
p7473
aVnaturally
p7474
aVconstruction
p7475
aVcount
p7476
aVsmooth
p7477
aVsulua
p7478
aVrecognize
p7479
aVtenth
p7480
aVtreason
p7481
aVrural
p7482
aVunreasonableness
p7483
aVdismissal
p7484
aV169
p7485
aV163
p7486
aVevacuation
p7487
aVkishore
p7488
aV29th
p7489
aVabove
p7490
aVstudy
p7491
aVaka
p7492
aVvasantika
p7493
aVglance
p7494
aVcontinual
p7495
aVmechanic
p7496
aVgoff
p7497
aVphotocopy
p7498
aVordinary
p7499
aVgreer
p7500
aVgreen
p7501
aVdevote
p7502
aVconsent
p7503
aVknock
p7504
aVsomewhere
p7505
aVthen
p7506
aVthem
p7507
aVaffected
p7508
aVremission
p7509
aVamenable
p7510
aVsuicide
p7511
aVcrimes
p7512
aVlomani
p7513
aVconform
p7514
aVincorporated
p7515
aVmisconstrue
p7516
aVorganize
p7517
aVunauthorized
p7518
aVababa
p7519
aVsolely
p7520
aVratnam
p7521
aVmanner
p7522
aVstrength
p7523
aVconducive
p7524
aVd4
p7525
aVd2
p7526
aVd3
p7527
aVd1
p7528
aVdo
p7529
aVdi
p7530
aVde
p7531
aVdc
p7532
aVda
p7533
aVwatson
p7534
aVstatutorily
p7535
aVdy
p7536
aVdw
p7537
aVdu
p7538
aVdr
p7539
aVdepends
p7540
aVcow
p7541
aVcox
p7542
aVcom
p7543
aVcon
p7544
aVflexible
p7545
aVconvening
p7546
aVvoice
p7547
aVreceptionist
p7548
aVindictment
p7549
aV1979
p7550
aV1978
p7551
aV1976
p7552
aV1975
p7553
aV1974
p7554
aV1973
p7555
aV1972
p7556
aVresettlement
p7557
aV1970
p7558
aVthe
p7559
aVtherewith
p7560
aVpassive
p7561
aVwailevu
p7562
aV2007s
p7563
aVsecurity
p7564
aVmanual
p7565
aVformidable
p7566
aVcausative
p7567
aVfight
p7568
aVaccordingly
p7569
aVnalawa
p7570
aVflour
p7571
aVevidence
p7572
aVvananalagi
p7573
aVphysical
p7574
aVinterested
p7575
aVcwm
p7576
aVindecently
p7577
aVanand
p7578
aVpresumed
p7579
aVliability
p7580
aVrevolution
p7581
aVprofessionalism
p7582
aVsatisfy
p7583
aVcollateral
p7584
aVbolt
p7585
aVmatrimonial
p7586
aVbullock
p7587
aVrarely
p7588
aVentrance
p7589
aVmchugh
p7590
aVconspire
p7591
aV7pm
p7592
aVspa
p7593
aVdistinguishable
p7594
aVserum
p7595
aVproductive
p7596
aVbankrupt
p7597
aVcriterion
p7598
aVallowable
p7599
aVentrench
p7600
aVexplicit
p7601
aVrather
p7602
aVprogressively
p7603
aVoffend
p7604
aVindeed
p7605
aVforfeit
p7606
aVacknowledge
p7607
aVnorway
p7608
aVservant
p7609
aVwong
p7610
aVentirely
p7611
aVsignificantly
p7612
aVlieu
p7613
aVsurman
p7614
aVsummon
p7615
aVreceiving
p7616
aVviable
p7617
aVinevitably
p7618
aVallegation
p7619
aVrebel
p7620
aVinevitable
p7621
aVpromotion
p7622
aVcomprises
p7623
aVsize
p7624
aVfriend
p7625
aVmostly
p7626
aVreturnable
p7627
aVamaratunga
p7628
aV13th
p7629
aVanger
p7630
aVobjective
p7631
aVimpairment
p7632
aVtikoisuva
p7633
aV226
p7634
aVproportion
p7635
aVhusband
p7636
aVconcert
p7637
aVconcern
p7638
aVcorroboration
p7639
aVseekers
p7640
aVjustifies
p7641
aV4th
p7642
aVjustified
p7643
aVarticle
p7644
aVscrupulously
p7645
aVsedition
p7646
aVdeveloping
p7647
aVexercisable
p7648
aVsoil
p7649
aVindebtedness
p7650
aVdocument
p7651
aVfruit
p7652
aVmentally
p7653
aVforest
p7654
aVcivilized
p7655
aVspeed
p7656
aVlegitimately
p7657
aVtreatment
p7658
aVstruck
p7659
aVmomentum
p7660
aVusefully
p7661
aVcolombia
p7662
aVexecution
p7663
aVlady
p7664
aVdownward
p7665
aVeddie
p7666
aVstrangulation
p7667
aVperverse
p7668
aVdeficit
p7669
aVridgway
p7670
aVchop
p7671
aVrenovate
p7672
aVoperator
p7673
aVhire
p7674
aVapology
p7675
aVhira
p7676
aVbucket
p7677
aVdescribe
p7678
aVoverreach
p7679
aVcoverage
p7680
aVsolicit
p7681
aVsashi
p7682
aVretrial
p7683
aVmill
p7684
aVconscience
p7685
aVunsurprisingly
p7686
aVstrong
p7687
aVultra
p7688
aVpenioni
p7689
aVsamad
p7690
aVtenderer
p7691
aVtendered
p7692
aVfinally
p7693
aVvi
p7694
aVbroke
p7695
aVunderwriter
p7696
aVhurry
p7697
aVhardware
p7698
aVnine
p7699
aVadultery
p7700
aVclarke
p7701
aVforeseen
p7702
aVfa
p7703
aVdocumentation
p7704
aVsaleem
p7705
aVfully
p7706
aVcapability
p7707
aVtrailer
p7708
aVdig
p7709
aVneil
p7710
aVthirteenth
p7711
aVrobert
p7712
aVdire
p7713
aVbasa
p7714
aVdip
p7715
aVpersists
p7716
aVelder
p7717
aVobedience
p7718
aVjordan
p7719
aVflattery
p7720
aVkindly
p7721
aVpremeditate
p7722
aVsubstantial
p7723
aV356
p7724
aVaau0060
p7725
aVtowards
p7726
aVquote
p7727
aVquota
p7728
aVdrawing
p7729
aV668
p7730
aV666
p7731
aV665
p7732
aV664
p7733
aV663
p7734
aV662
p7735
aV661
p7736
aV660
p7737
aVcompletion
p7738
aVhabib
p7739
aVcentral
p7740
aVmeanwhile
p7741
aVkind
p7742
aVfamous
p7743
aVduring
p7744
aVdishonestly
p7745
aVseventeen
p7746
aVaround
p7747
aVulaiasi
p7748
aVnotoriously
p7749
aVextempore
p7750
aVpartly
p7751
aValta
p7752
aVhailsham
p7753
aVclerical
p7754
aVanymore
p7755
aVbelong
p7756
aVwilson
p7757
aViqbal
p7758
aVafro
p7759
aVevaluate
p7760
aVcharacterise
p7761
aVsubmission
p7762
aVsignal
p7763
aVqatar
p7764
aVbeneficially
p7765
aVinconvenience
p7766
aVimprison
p7767
aVlawfulness
p7768
aVabroad
p7769
aVfaith
p7770
aVallotment
p7771
aVconsultation
p7772
aVhimself
p7773
aVvalenitabua
p7774
aVsharing
p7775
aVcotton
p7776
aVforgo
p7777
aVforge
p7778
aVdepth
p7779
aVkilometre
p7780
aVprudence
p7781
aVkitto
p7782
aVdilute
p7783
aVoutgoings
p7784
aVcollins
p7785
aVvinay
p7786
aVarrive
p7787
aVdrawer
p7788
aVdisbelieve
p7789
aVvexatious
p7790
aVescaped
p7791
aVpalermo
p7792
aVdeplore
p7793
aVhealthcare
p7794
aVsoftware
p7795
aVenshrine
p7796
aVbahadur
p7797
aVcommonwealth
p7798
aVsecretly
p7799
aVcriminally
p7800
aVadvisor
p7801
aVroute
p7802
aVdiminished
p7803
aVkeep
p7804
aVaustin
p7805
aVyong
p7806
aVpossessing
p7807
aVcirculate
p7808
aVsuitability
p7809
aVherself
p7810
aVphotograph
p7811
aVlightly
p7812
aVunchanged
p7813
aVthereto
p7814
aVborder
p7815
aVrepercussion
p7816
aVharmonization
p7817
aVproceedings
p7818
aVbusinessman
p7819
aVvaluation
p7820
aV120
p7821
aV121
p7822
aV122
p7823
aV124
p7824
aV127
p7825
aV128
p7826
aV129
p7827
aVperpetrator
p7828
aVlegacy
p7829
aVcorrectly
p7830
aVlum
p7831
aVlaisenia
p7832
aVattention
p7833
aVdisproportionately
p7834
aVthank
p7835
aVhabitual
p7836
aVrightly
p7837
aVtupou
p7838
aVwickramasinghe
p7839
aVminimise
p7840
aVdigger
p7841
aVnovel
p7842
aVinn
p7843
aVresident
p7844
aVjaneiro
p7845
aVabsorb
p7846
aValjr
p7847
aV1994s
p7848
aVsharif
p7849
aVnath
p7850
aVextends
p7851
aVnata
p7852
aVpossess
p7853
aVvunisa
p7854
aV016
p7855
aVprominent
p7856
aValternatively
p7857
aVisireli
p7858
aVbacklog
p7859
aVsinister
p7860
aVdesignated
p7861
aVho
p7862
aVhl
p7863
aVhc
p7864
aVha
p7865
aVhe
p7866
aVcarriage
p7867
aVtwist
p7868
aV475
p7869
aV479
p7870
aVdynamic
p7871
aVlutumailagi
p7872
aVdelainavesi
p7873
aVaffect
p7874
aValpine
p7875
aVsolution
p7876
aV02nd
p7877
aVnew
p7878
aVnet
p7879
aVoman
p7880
aVcounty
p7881
aVrecommend
p7882
aVtype
p7883
aVassent
p7884
aVglobalization
p7885
aVmessrs
p7886
aVmurray
p7887
aVterere
p7888
aVshiri
p7889
aVindulge
p7890
aVrhetoric
p7891
aVprerequisite
p7892
aVinterruption
p7893
aVsurprise
p7894
aVrevenge
p7895
aVbestow
p7896
aVbidder
p7897
aValibi
p7898
aVniece
p7899
aVaffirmatively
p7900
aVexonerate
p7901
aVmedical
p7902
aVthirds
p7903
aVdebts
p7904
aVattest
p7905
aVcomprehensively
p7906
aVscrap
p7907
aVprince
p7908
aVgwen
p7909
aVeradication
p7910
aVexception
p7911
aVtank
p7912
aVwinding
p7913
aVmetropolitan
p7914
aVshame
p7915
aVadvocate
p7916
aVroma
p7917
aVperpetration
p7918
aVdesignate
p7919
aVopt
p7920
aV3pm
p7921
aVconciliation
p7922
aVtuilevuka
p7923
aVyelling
p7924
aVislands
p7925
aVmotivate
p7926
aVfork
p7927
aVform
p7928
aVfore
p7929
aVford
p7930
aV31st
p7931
aVtemper
p7932
aVdelete
p7933
aVclassic
p7934
aVadversely
p7935
aVshiu
p7936
aVdigital
p7937
aVfelt
p7938
aVbillion
p7939
aVinvent
p7940
aVtargeted
p7941
aVpathologist
p7942
aV1s
p7943
aVgenuinely
p7944
aVmodus
p7945
aVroman
p7946
aV556
p7947
aVrigid
p7948
aVmotif
p7949
aVwallet
p7950
aV1all
p7951
aVpure
p7952
aVswore
p7953
aVsworn
p7954
aVblame
p7955
aVgrog
p7956
aVgrow
p7957
aVchef
p7958
aVjail
p7959
aVdiffers
p7960
aVhirst
p7961
aVinterview
p7962
aVoffshore
p7963
aVinterference
p7964
aVimperative
p7965
aVobjectivity
p7966
aVappealable
p7967
aVmechanisms
p7968
aVdwelling
p7969
aVdisburse
p7970
aVcarry
p7971
aVunduly
p7972
aVcontinuous
p7973
aVtractor
p7974
aVcoconut
p7975
aVmarijuana
p7976
aVconspiracy
p7977
aVvanua
p7978
aVpaid
p7979
aVancillary
p7980
aVblack
p7981
aVsummary
p7982
aV920
p7983
aVhonesty
p7984
aVbehind
p7985
aVreading
p7986
aVtuiloa
p7987
aVjp
p7988
aVjr
p7989
aVjs
p7990
aVtui
p7991
aVjo
p7992
aVja
p7993
aVrugby
p7994
aVdated
p7995
aVcancer
p7996
aVcancel
p7997
aVbarry
p7998
aVcertify
p7999
aVcompile
p8000
aVmargin
p8001
aVsincere
p8002
aVdrain
p8003
aVpeace
p8004
aVmitieli
p8005
aVreputable
p8006
aVtrespasser
p8007
aVvatukoula
p8008
aVdrainage
p8009
aVrefers
p8010
aVisland
p8011
aVeighteenth
p8012
aVlands
p8013
aVmark
p8014
aVpharmaceutical
p8015
aVistanbul
p8016
aVhybrid
p8017
aVshelter
p8018
aVcooperative
p8019
aVinvariably
p8020
aVregularise
p8021
aVmedicine
p8022
aVfall
p8023
aVneurological
p8024
aVeconomically
p8025
aVmisrepresent
p8026
aVmaterial
p8027
aVstood
p8028
aVoperating
p8029
aVleung
p8030
aVairport
p8031
aVnarrow
p8032
aVquashing
p8033
aVformality
p8034
aV2013s
p8035
aVtown
p8036
aVdey
p8037
aVdes
p8038
aVwaila
p8039
aVdel
p8040
aVdec
p8041
aVdee
p8042
aVpurchaser
p8043
aVfaculty
p8044
aVnltb
p8045
aVlate
p8046
aVlata
p8047
aVseeking
p8048
aVpan
p8049
aVeveryone
p8050
aVfunding
p8051
aVprojected
p8052
aVhalka
p8053
aVutilized
p8054
aVtwenty
p8055
aVconstruct
p8056
aVobligatory
p8057
aVpaint
p8058
aVobservations
p8059
aVfarming
p8060
aVmortgaged
p8061
aVconcludes
p8062
aVsakiusa
p8063
aVconfirms
p8064
aVprovince
p8065
aVsignificant
p8066
aVcharitable
p8067
aVthomas
p8068
aVcarefully
p8069
aVcourage
p8070
aVtransitional
p8071
aVarouse
p8072
aVroihi
p8073
aVmcdonald
p8074
aVsecret
p8075
aVcruelty
p8076
aVsexuality
p8077
aVkamlesh
p8078
aVmisdemeanour
p8079
aVhubbuck
p8080
aVemphasize
p8081
aVassignment
p8082
aVaggregate
p8083
aVhalve
p8084
aVspent
p8085
aVlandmark
p8086
aVspend
p8087
aValternate
p8088
aVimpoverished
p8089
aV321
p8090
aVimprobable
p8091
aVindication
p8092
aVback
p8093
aVnicaragua
p8094
aVinvade
p8095
aVs12
p8096
aViosefo
p8097
aVfrom
p8098
aV8pm
p8099
aVconsequently
p8100
aVbyrne
p8101
aVnutshell
p8102
aVrejection
p8103
aVherzegovina
p8104
aVpossessor
p8105
aVengineering
p8106
aVgulab
p8107
aVappalling
p8108
aVhospitalisation
p8109
aVquery
p8110
aVadjoin
p8111
aVgravel
p8112
aVimplausible
p8113
aVseverely
p8114
aVrespectful
p8115
aVwrecker
p8116
aVremark
p8117
aVimplementation
p8118
aVnamed
p8119
aVprivate
p8120
aVnames
p8121
aVstaple
p8122
aVoverbear
p8123
aVthemselves
p8124
aVmanufacturer
p8125
aVadmiralty
p8126
aVairline
p8127
aVphilosophy
p8128
aVnullify
p8129
aVoccupational
p8130
aVle
p8131
aVlc
p8132
aVla
p8133
aVln
p8134
aVll
p8135
aVlj
p8136
aVli
p8137
aVlt
p8138
aVlr
p8139
aVcriminal
p8140
aVmandate
p8141
aVstrive
p8142
aVcovering
p8143
aVfondle
p8144
aVwrist
p8145
aVwholly
p8146
aVinsolvent
p8147
aVlikelihood
p8148
aVbleed
p8149
aVretain
p8150
aV1888
p8151
aVfacia
p8152
aVfacie
p8153
aVvishnu
p8154
aVkermode
p8155
aVbisexual
p8156
aVcomfortable
p8157
aVtide
p8158
aVgravity
p8159
aVsomaratne
p8160
aVtenure
p8161
aVhandbag
p8162
aVtranscript
p8163
aVambiguity
p8164
aVaforementioned
p8165
aVfloat
p8166
aVwg
p8167
aVwe
p8168
aVwn
p8169
aVimplementing
p8170
aVfreely
p8171
aVassure
p8172
aVbrennan
p8173
aVcommend
p8174
aVdonee
p8175
aVvalue
p8176
aVarabia
p8177
aVweapon
p8178
aVprocurement
p8179
aVunderlying
p8180
aVwinchester
p8181
aVimpugned
p8182
aV11pm
p8183
aVdecease
p8184
aVcorroborate
p8185
aVsupportive
p8186
aVslight
p8187
aVworthy
p8188
aVperiodically
p8189
aVretribution
p8190
aVsubmits
p8191
aVdemonstrably
p8192
aVdoesnt
p8193
aVconfession
p8194
aVprudent
p8195
aVpartially
p8196
aVwise
p8197
aVwish
p8198
aVour
p8199
aVtraumatic
p8200
aVbundle
p8201
aVbaker
p8202
aVhate
p8203
aVinformality
p8204
aV17in
p8205
aVforged
p8206
aVenjoy
p8207
aValipate
p8208
aVransack
p8209
aVrecidivist
p8210
aVabolition
p8211
aVbreathe
p8212
aVshoot
p8213
aVjoin
p8214
aVpetersen
p8215
aVmohan
p8216
aVparcel
p8217
aVcollude
p8218
aVtransferor
p8219
aVcomprehend
p8220
aVmisdirection
p8221
aVsaula
p8222
aVstreamline
p8223
aV1500
p8224
aVceiling
p8225
aV650
p8226
aVwestern
p8227
aVarraignment
p8228
aV659
p8229
aVsocio
p8230
aVregulate
p8231
aVvosawale
p8232
aVharper
p8233
aVoriented
p8234
aVupholding
p8235
aVcoin
p8236
aVflow
p8237
aVtreaty
p8238
aVorderly
p8239
aVinspire
p8240
aVrandom
p8241
aVphoto
p8242
aVabu
p8243
aVtuberculosis
p8244
aVliquor
p8245
aVresist
p8246
aV368
p8247
aV369
p8248
aV366
p8249
aV367
p8250
aV364
p8251
aV365
p8252
aV362
p8253
aV363
p8254
aV360
p8255
aV361
p8256
aVconfusion
p8257
aVcensorship
p8258
aVbose
p8259
aVsanitation
p8260
aVepidemic
p8261
aVbeer
p8262
aVuncommon
p8263
aVinventory
p8264
aVforceful
p8265
aVpreparedness
p8266
aVcampbell
p8267
aVtechnological
p8268
aVsanitary
p8269
aVspecific
p8270
aVmosquito
p8271
aVstereotype
p8272
aVescape
p8273
aVcord
p8274
aVcore
p8275
aVcorp
p8276
aVcorr
p8277
aVintercultural
p8278
aVsurround
p8279
aVundocumented
p8280
aVmisleading
p8281
aVgenocide
p8282
aVlogistical
p8283
aVdestination
p8284
aVaccommodate
p8285
aVemigrate
p8286
aVrely
p8287
aVpetitioning
p8288
aV26th
p8289
aVhumiliate
p8290
aVdiamond
p8291
aVni
p8292
aVnl
p8293
aVno
p8294
aVna
p8295
aVfitzgerald
p8296
aVne
p8297
aVnz
p8298
aVreconsider
p8299
aVpreceding
p8300
aVn0
p8301
aVlivelihood
p8302
aVrecharge
p8303
aVhenderson
p8304
aVadvantage
p8305
aVdenied
p8306
aVcounterclaim
p8307
aVaccumulation
p8308
aV525
p8309
aV526
p8310
aV527
p8311
aV520
p8312
aV521
p8313
aV522
p8314
aV523
p8315
aVaau0027
p8316
aV528
p8317
aV529
p8318
aV1964
p8319
aVtwentieth
p8320
aVthirty
p8321
aV1st
p8322
aVtrinidad
p8323
aVconcoct
p8324
aVmareko
p8325
aVriot
p8326
aVunbelievable
p8327
aVmuloilagi
p8328
aVimpartially
p8329
aVequality
p8330
aVdivisional
p8331
aVbegum
p8332
aVadequately
p8333
aVprofit
p8334
aVtheory
p8335
aVimpose
p8336
aV1000
p8337
aVorigin
p8338
aVintrinsically
p8339
aVrequire
p8340
aVwar
p8341
aVpre
p8342
aVana
p8343
aVpro
p8344
aVprostitution
p8345
aVmater
p8346
aVanr
p8347
aVanz
p8348
aVconnor
p8349
aVexplicitly
p8350
aVclosure
p8351
aVreveals
p8352
aVrmn
p8353
aVdetect
p8354
aVregion
p8355
aVforthwith
p8356
aVprobable
p8357
aVrobbed
p8358
aVshaft
p8359
aVgood
p8360
aVpunched
p8361
aVapplaud
p8362
aVdevoid
p8363
aVarose
p8364
aVatkins
p8365
aVwestpac
p8366
aVrecital
p8367
aVtermination
p8368
aVmodel
p8369
aVclot
p8370
aVkingdom
p8371
aVkotigalage
p8372
aVeasily
p8373
aVvalentine
p8374
aVpregnant
p8375
aVdisentitled
p8376
aVveracity
p8377
aVpacific
p8378
aVcanteen
p8379
aVprovided
p8380
aVlegal
p8381
aVhanif
p8382
aVprovider
p8383
aVdeclaratory
p8384
aVconcurrent
p8385
aVparalysis
p8386
aV734
p8387
aV753
p8388
aV750
p8389
aV757
p8390
aV754
p8391
aV738
p8392
aVpreside
p8393
aVcbv
p8394
aVare
p8395
aVloyal
p8396
aVsubsume
p8397
aVincluded
p8398
aVbilateral
p8399
aVinvest
p8400
aVremedied
p8401
aVfollow
p8402
aVsettlement
p8403
aVremoval
p8404
aVbelonging
p8405
aVundone
p8406
aVten
p8407
aVtea
p8408
aVvuibau
p8409
aVcommits
p8410
aVcommunicable
p8411
aVeventuate
p8412
aVdirections
p8413
aVdifficulty
p8414
aV2000l
p8415
aV2000s
p8416
aV1908
p8417
aV1909
p8418
aV1906
p8419
aV1904
p8420
aV1905
p8421
aV1902
p8422
aV1903
p8423
aV1900
p8424
aV1901
p8425
aVcompensate
p8426
aVprotestors
p8427
aVmethodist
p8428
aVcoerce
p8429
aVextinguishes
p8430
aVbreaking
p8431
aVdisable
p8432
aVseptember
p8433
aVmission
p8434
aVislam
p8435
aVmight
p8436
aValter
p8437
aVjuncture
p8438
aVinequality
p8439
aVinherent
p8440
aVformulate
p8441
aV4pm
p8442
aVhealth
p8443
aVbenjamin
p8444
aVsolvent
p8445
aVrandall
p8446
aVgenerate
p8447
aVthrown
p8448
aVcircuit
p8449
aV5th
p8450
aVblank
p8451
aVcozens
p8452
aVcorporal
p8453
aVtemperature
p8454
aVstrategy
p8455
aVinstruction
p8456
aVstrengthen
p8457
aVadded
p8458
aVmaikeli
p8459
aVshareholder
p8460
aVmineral
p8461
aVdrotini
p8462
aV10am
p8463
aVmemorandum
p8464
aVabiding
p8465
aVconsensual
p8466
aV860
p8467
aVsustainable
p8468
aVvincent
p8469
aVsanag
p8470
aVsignify
p8471
aVyouth
p8472
aVapolosi
p8473
aVcorruption
p8474
aVkorea
p8475
aVrecently
p8476
aVwaqabaca
p8477
aVqica
p8478
aVarresting
p8479
aVcomplication
p8480
aVrajendra
p8481
aVdue
p8482
aVpa
p8483
aVpg
p8484
aVpd
p8485
aVpe
p8486
aVpo
p8487
aVpm
p8488
aVphilippine
p8489
aVp2
p8490
aVp3
p8491
aVp1
p8492
aVp6
p8493
aVp7
p8494
aVp4
p8495
aVp5
p8496
aVp8
p8497
aVp9
p8498
aVwakaniyasi
p8499
aVloading
p8500
aVcondemnation
p8501
aVarthur
p8502
aVperpetual
p8503
aVunderstood
p8504
aVtends
p8505
aVdevlin
p8506
aVfibula
p8507
aVcanal
p8508
aVfast
p8509
aVfaso
p8510
aVconceivable
p8511
aVvienna
p8512
aVmistreatment
p8513
aVupheld
p8514
aV0015
p8515
aV0013
p8516
aV0012
p8517
aV0019
p8518
aVreintegration
p8519
aVperusal
p8520
aVsuffers
p8521
aVissued
p8522
aVissues
p8523
aVlloyds
p8524
aV350
p8525
aVsap
p8526
aVsensation
p8527
aVusher
p8528
aVdesired
p8529
aVseparation
p8530
aVran
p8531
aVlodging
p8532
aVuse
p8533
aVusd
p8534
aVfeb
p8535
aVusa
p8536
aVfea
p8537
aVfew
p8538
aVusp
p8539
aVsort
p8540
aVparliament
p8541
aVimpress
p8542
aVindefeasibility
p8543
aVtopic
p8544
aVproprietary
p8545
aVcalculation
p8546
aVhazard
p8547
aVcontention
p8548
aVnegligent
p8549
aVresolve
p8550
aVfingerprint
p8551
aVserif
p8552
aVintegrated
p8553
aV45pm
p8554
aVovertake
p8555
aVtransfer
p8556
aVsalutary
p8557
aVacademy
p8558
aVcombat
p8559
aVdiscourage
p8560
aVplease
p8561
aVunanimously
p8562
aVpastoral
p8563
aV6000
p8564
aVprosecute
p8565
aVspur
p8566
aVhypothesis
p8567
aVunencumbered
p8568
aVaircraft
p8569
aVvicinity
p8570
aVsubscribe
p8571
aVmeritorious
p8572
aVcross
p8573
aV1954
p8574
aV1957
p8575
aVfighting
p8576
aVcaveator
p8577
aV1958
p8578
aVpresume
p8579
aVlawson
p8580
aVunsuccessful
p8581
aVcolumn
p8582
aVurges
p8583
aVemperor
p8584
aVnegate
p8585
aVconsecutively
p8586
aVcullinan
p8587
aVwaisake
p8588
aVresumption
p8589
aVother
p8590
aVjiten
p8591
aVinherently
p8592
aVdisclosure
p8593
aVupwards
p8594
aVeichelbaum
p8595
aVesher
p8596
aVdisturb
p8597
aVspecially
p8598
aVelaborate
p8599
aVsalesh
p8600
aVsalesi
p8601
aVcriticism
p8602
aVcriticise
p8603
aVcontumelious
p8604
aVreplace
p8605
aVobligation
p8606
aVapportionment
p8607
aVstrike
p8608
aVhereby
p8609
aVjanend
p8610
aVexample
p8611
aVcounseling
p8612
aVfeature
p8613
aVreassess
p8614
aVstevens
p8615
aVrenunciation
p8616
aVinterrupt
p8617
aVtilalevu
p8618
aVunlawfully
p8619
aVrt
p8620
aVdrove
p8621
aVrr
p8622
aVry
p8623
aVrd
p8624
aVra
p8625
aVrm
p8626
aVnaqase
p8627
aVthreatened
p8628
aVenormous
p8629
aVr1
p8630
aVlaucala
p8631
aVtraumatize
p8632
aVwillingness
p8633
aVconnelly
p8634
aVorganization
p8635
aVdetriment
p8636
aVlethal
p8637
aVinoperative
p8638
aVtelevision
p8639
aVpocket
p8640
aVvicariously
p8641
aVadherence
p8642
aVhasten
p8643
aVperipheral
p8644
aVavers
p8645
aVradius
p8646
aVhumankind
p8647
aVnationwide
p8648
aVmacedonia
p8649
aVlogic
p8650
aVargue
p8651
aVwaqanika
p8652
aVpregnancy
p8653
aVsubstance
p8654
aVviii
p8655
aVelicit
p8656
aVelliott
p8657
aVeuropean
p8658
aVdisparity
p8659
aVdesire
p8660
aVcreek
p8661
aVsubstituted
p8662
aVfurnishing
p8663
aVnovo
p8664
aVcped
p8665
aVabundantly
p8666
aVforever
p8667
aVextremist
p8668
aVsaweni
p8669
aVaccelerate
p8670
aV151
p8671
aV150
p8672
aV153
p8673
aV152
p8674
aV155
p8675
aV154
p8676
aV157
p8677
aV156
p8678
aV159
p8679
aV158
p8680
aVjenkins
p8681
aVscale
p8682
aVbreadth
p8683
aVlrc
p8684
aVleave
p8685
aVspeculation
p8686
aVspiritual
p8687
aVkuddus
p8688
aVjury
p8689
aVjure
p8690
aVredemption
p8691
aVmyers
p8692
aVamicus
p8693
aVlogically
p8694
aVscope
p8695
aVoreilly
p8696
aVprosecutor
p8697
aVvirtue
p8698
aVgalbraith
p8699
aVmonitoring
p8700
aVnatural
p8701
aVoverhaul
p8702
aVthereby
p8703
aVnation
p8704
aVamnesty
p8705
aVsquare
p8706
aVneighbourhood
p8707
aV287
p8708
aVdisrespect
p8709
aVmultiplier
p8710
aVundesirable
p8711
aVcity
p8712
aV222
p8713
aVbite
p8714
aVphysically
p8715
aVcite
p8716
aVimpractical
p8717
aVdepressed
p8718
aVasleep
p8719
aVcounselor
p8720
aValler
p8721
aVkhaiyum
p8722
aVsport
p8723
aVdownwards
p8724
aVpeacekeeping
p8725
aVdrive
p8726
aVbright
p8727
aVscarce
p8728
aVsativa
p8729
aVliberation
p8730
aVoutrage
p8731
aVuncover
p8732
aVscreen
p8733
aVoust
p8734
aVconsultant
p8735
aVconveyance
p8736
aVpertain
p8737
aVpurse
p8738
aVmonk
p8739
aVrajasinghe
p8740
aVdark
p8741
aVvacuum
p8742
aVlandowner
p8743
aVsupplementary
p8744
aVaccidental
p8745
aVcannabis
p8746
aVrefer
p8747
aVpackage
p8748
aVmarkedly
p8749
aVgarment
p8750
aVestoppel
p8751
aVestopped
p8752
aVamplify
p8753
aVoctober
p8754
aVimpute
p8755
aVcitizenship
p8756
aVmigrate
p8757
aVlaboratory
p8758
aVvocational
p8759
aVtight
p8760
aVincomprehensible
p8761
aVadam
p8762
aVwaiver
p8763
aVdirectorship
p8764
aVtv
p8765
aVto
p8766
aVtail
p8767
aVtm
p8768
aVhonourable
p8769
aVescaping
p8770
aVempower
p8771
aVnavin
p8772
aVintensive
p8773
aVfatal
p8774
aVsousou
p8775
aV427
p8776
aVscan
p8777
aVprst
p8778
aVscar
p8779
aVimminent
p8780
aVregister
p8781
aVvolleyball
p8782
aVfundamental
p8783
aVbrij
p8784
aVaccommodation
p8785
aVaggrieved
p8786
aVupstairs
p8787
aVmeasurement
p8788
aV175
p8789
aVcakacaka
p8790
aVfeeder
p8791
aVinapplicable
p8792
aVbleeding
p8793
aVelaboration
p8794
aVaau
p8795
aVdefect
p8796
aV67in
p8797
aVjeopardize
p8798
aVcommotion
p8799
aVreliance
p8800
aVinternal
p8801
aVchancery
p8802
aVgolf
p8803
aVgold
p8804
aVrevisionary
p8805
aVfactor
p8806
aVcry
p8807
aVbanking
p8808
aVknowing
p8809
aVincident
p8810
aVdividend
p8811
aVshoe
p8812
aVlegislature
p8813
aVtangible
p8814
aVallegiance
p8815
aVchurch
p8816
aVintestate
p8817
aVinstalment
p8818
aV01
p8819
aVreliable
p8820
aVerror
p8821
aVcomprehensive
p8822
aVnecessity
p8823
aVexpend
p8824
aVperson
p8825
aVrecipient
p8826
aVsydney
p8827
aVwrongdoer
p8828
aVharvesting
p8829
aVformat
p8830
aVrelating
p8831
aVanterior
p8832
aVlitigate
p8833
aVcid
p8834
aVciv
p8835
aVcit
p8836
aV950
p8837
aV952
p8838
aV95s
p8839
aVscratch
p8840
aVyoung
p8841
aVtry
p8842
aVudit
p8843
aVpledge
p8844
aVdirective
p8845
aVexpressed
p8846
aVrichmond
p8847
aVequivalent
p8848
aVpunch
p8849
aVpoverty
p8850
aVsgt
p8851
aVsgd
p8852
aVthrow
p8853
aVbodily
p8854
aVchallenge
p8855
aVpawn
p8856
aVmisappropriation
p8857
aVcounter
p8858
aVelement
p8859
aVwrit
p8860
aVasserts
p8861
aVwarren
p8862
aVdispose
p8863
aVmisapprehension
p8864
aVtherefor
p8865
aVrotation
p8866
aVnanayakkara
p8867
aVstock
p8868
aVhickie
p8869
aVabu0019
p8870
aVabu0011
p8871
aVborderline
p8872
aVcollection
p8873
aVregulatory
p8874
aVcokanasiga
p8875
aVmacuata
p8876
aVreproduction
p8877
aVcorrespond
p8878
aVvulaca
p8879
aVkorean
p8880
aVcourtesy
p8881
aVfides
p8882
aVface
p8883
aVfact
p8884
aVcharacterisation
p8885
aVhettiarachchi
p8886
aVhandle
p8887
aVsmash
p8888
aV01st
p8889
aVgoddard
p8890
aVoutsider
p8891
aVnarere
p8892
aVve
p8893
aVvp
p8894
aVvr
p8895
aVvs
p8896
aVannexures
p8897
aVtenor
p8898
aVdam
p8899
aVemotionally
p8900
aVfifthly
p8901
aVrestructure
p8902
aVdas
p8903
aVgovernment
p8904
aV259
p8905
aVamendment
p8906
aVidentified
p8907
aVdaylight
p8908
aVvsc
p8909
aVsairusi
p8910
aVadversary
p8911
aVbandara
p8912
aVlung
p8913
aVnewtown
p8914
aVflagstaff
p8915
aVconvince
p8916
aVdistribution
p8917
aVinc
p8918
aV472
p8919
aV473
p8920
aV470
p8921
aV471
p8922
aV476
p8923
aV477
p8924
aV478
p8925
aVskeleton
p8926
aVlodgement
p8927
aVjacob
p8928
aVpostpone
p8929
aVpinch
p8930
aVblasphemy
p8931
aVhorn
p8932
aVchen
p8933
aVdeliberate
p8934
aVconsequent
p8935
aVofficially
p8936
aVhighly
p8937
aVtotal
p8938
aV545
p8939
aVsavenaca
p8940
aVearlier
p8941
aVseseu
p8942
aVhectare
p8943
aVnett
p8944
aVcarton
p8945
aVband
p8946
aVbang
p8947
aVbano
p8948
aVbank
p8949
aVslavery
p8950
aVlogo
p8951
aVremorse
p8952
aVstandard
p8953
aVsadly
p8954
aValbert
p8955
aVnaboro
p8956
aVrealm
p8957
aVlatter
p8958
aVluxury
p8959
aVcurfew
p8960
aVpenalise
p8961
aVprerogative
p8962
aVcalculated
p8963
aVconfront
p8964
aVrefute
p8965
aVlayman
p8966
aVadequate
p8967
aVhrc
p8968
aVleisure
p8969
aVnswsc
p8970
aVcompensation
p8971
aVgosai
p8972
aVunable
p8973
aVloose
p8974
aV00pm
p8975
aVlinkage
p8976
aVseizure
p8977
aVconstructively
p8978
aVethicon
p8979
aVsachs
p8980
aVdrafting
p8981
aVapplied
p8982
aVapplies
p8983
aVabu0011a
p8984
aVperform
p8985
aVauthorise
p8986
aVincorrectly
p8987
aVstringent
p8988
aV322
p8989
aV323
p8990
aVbelongs
p8991
aV326
p8992
aV327
p8993
aV325
p8994
aV329
p8995
aVanyreasonable
p8996
aVdenies
p8997
aVpavement
p8998
aVpose
p8999
aVconfer
p9000
aVillustration
p9001
aVtaker
p9002
aVpost
p9003
aVcoral
p9004
aVcoram
p9005
aVaccepts
p9006
aVstrangely
p9007
aVwai
p9008
aVwag
p9009
aVpeople
p9010
aVway
p9011
aVwas
p9012
aVmoore
p9013
aVpickering
p9014
aVfor
p9015
aVexcuse
p9016
aVpuamau
p9017
aVprecedent
p9018
aVfox
p9019
aVindicating
p9020
aVgrateful
p9021
aVcertainly
p9022
aVhereof
p9023
aVtext
p9024
aVdivision
p9025
aVpredicate
p9026
aVfortnightly
p9027
aVdiscrete
p9028
aVaffiliation
p9029
aVhelpless
p9030
aVuniform
p9031
aVsubramani
p9032
aVexemption
p9033
aVusually
p9034
aVhamza
p9035
aVsaunders
p9036
aVdefeat
p9037
aVheart
p9038
aVattribute
p9039
aV1980s
p9040
aVheard
p9041
aVrestitution
p9042
aVaccrue
p9043
aVstatistical
p9044
aVkerr
p9045
aVmedication
p9046
aVdeprivation
p9047
aVprofess
p9048
aVxi
p9049
aVxx
p9050
aVdirectly
p9051
aVxv
p9052
aVtragic
p9053
aVtaxation
p9054
aVtraditionibus
p9055
aVslap
p9056
aVfreezer
p9057
aVtypically
p9058
aVgerman
p9059
aVfifth
p9060
aVupgrade
p9061
aVonly
p9062
aVtruly
p9063
aVcelebrate
p9064
aVheld
p9065
aVelected
p9066
aVculpable
p9067
aVbetween
p9068
aVinstallation
p9069
aVreasonableness
p9070
aVenabling
p9071
aVoverview
p9072
aVinformed
p9073
aVforeseeability
p9074
aVashneel
p9075
aVthese
p9076
aVtrick
p9077
aVcommander
p9078
aVkhalsa
p9079
aVdealer
p9080
aVnoble
p9081
aVsevere
p9082
aVnoah
p9083
aVdomicile
p9084
aVcollective
p9085
aVseini
p9086
aVinclusion
p9087
aVlog
p9088
aVlok
p9089
aVlow
p9090
aVlot
p9091
aVstrict
p9092
aVmarsack
p9093
aVpeat
p9094
aVdrift
p9095
aVretrospectively
p9096
aVfiscal
p9097
aVhac0019
p9098
aVbystander
p9099
aVrequisition
p9100
aVprecondition
p9101
aVpublish
p9102
aVfoster
p9103
aVscrewdriver
p9104
aVrehearing
p9105
aVdeficient
p9106
aVpromoter
p9107
aVnand
p9108
aViran
p9109
aViraq
p9110
aVadvisable
p9111
aVfamily
p9112
aVkhan
p9113
aVinspector
p9114
aVfinality
p9115
aVdream
p9116
aVtaxpayer
p9117
aVwhippy
p9118
aVintervene
p9119
aVpriority
p9120
aVunnatural
p9121
aVdouglas
p9122
aVassign
p9123
aVunaccompanied
p9124
aVselling
p9125
aVanticipate
p9126
aVurgently
p9127
aVcumbersome
p9128
aVkai
p9129
aVkam
p9130
aVkay
p9131
aVnorthern
p9132
aVdominant
p9133
aVvidya
p9134
aVzambia
p9135
aValteration
p9136
aVrajesh
p9137
aVfrustration
p9138
aVunconscious
p9139
aVenrol
p9140
aVstamp
p9141
aVrope
p9142
aV42nd
p9143
aVdocket
p9144
aVretirement
p9145
aVmadigan
p9146
aVgame
p9147
aVthushara
p9148
aVpositive
p9149
aVpw6
p9150
aVpw7
p9151
aVpw3
p9152
aVpw1
p9153
aVwithin
p9154
aVpw8
p9155
aVrenewal
p9156
aVtogo
p9157
aVduly
p9158
aVpwd
p9159
aVproperly
p9160
aVpradeep
p9161
aVunreasonable
p9162
aV1898
p9163
aV1899
p9164
aVunwise
p9165
aV1894
p9166
aV1895
p9167
aV1896
p9168
aV1897
p9169
aV1891
p9170
aV1893
p9171
aVreservation
p9172
aVindependently
p9173
aVroko
p9174
aVregain
p9175
aVbooth
p9176
aVcolonel
p9177
aVtoga
p9178
aVindivisible
p9179
aVcircumscribe
p9180
aVagreeable
p9181
aVbeijing
p9182
aVtoganivalu
p9183
aVarrangement
p9184
aVcircular
p9185
aVdiscard
p9186
aVdorsami
p9187
aVxenophobic
p9188
aVxenophobia
p9189
aVouter
p9190
aVundress
p9191
aValexander
p9192
aVbelatedly
p9193
aVchronic
p9194
aVcrossing
p9195
aV709
p9196
aV705
p9197
aV706
p9198
aV700
p9199
aV702
p9200
aV703
p9201
aVunlawful
p9202
aVhostile
p9203
aVcounterpart
p9204
aVadversarial
p9205
aVauspex
p9206
aVperfectly
p9207
aVprone
p9208
aVrsc
p9209
aVmanipulation
p9210
aVreunification
p9211
aVpivotal
p9212
aVlecturer
p9213
aV566
p9214
aVviolation
p9215
aVkong
p9216
aVprocedures
p9217
aVgray
p9218
aVshopping
p9219
aVconditions
p9220
aVaus
p9221
aVhumane
p9222
aVincline
p9223
aVadmin
p9224
aVadmit
p9225
aVtortfeasor
p9226
aVdistinguish
p9227
aVquit
p9228
aVmisapply
p9229
aVcorresponding
p9230
aVnegligently
p9231
aVpenlington
p9232
aVintimidate
p9233
aVcapture
p9234
aVshooting
p9235
aVpit
p9236
aVunderground
p9237
aVfrequently
p9238
aVspree
p9239
aVdefilement
p9240
aVbclc
p9241
aVimmediately
p9242
aVpage
p9243
aV980
p9244
aV984
p9245
aVpeter
p9246
aV04s
p9247
aVhinder
p9248
aVindicated
p9249
aV98s
p9250
aV049
p9251
aV048
p9252
aV045
p9253
aV043
p9254
aV042
p9255
aV040
p9256
aVequally
p9257
aVarticulate
p9258
aVmanaging
p9259
aVear
p9260
aVeat
p9261
aVonwards
p9262
aVdiagnosis
p9263
aVvalidation
p9264
aVcommencement
p9265
aVdissolution
p9266
aVasian
p9267
aVrelatively
p9268
aVgovern
p9269
aVvast
p9270
aVpossibility
p9271
aVdry
p9272
aVsuitably
p9273
aVharass
p9274
aVsuitable
p9275
aVyaqona
p9276
aVninety
p9277
aVward
p9278
aVguise
p9279
aVfaulty
p9280
aVindignity
p9281
aVattempt
p9282
aVfraudulently
p9283
aVinhabitant
p9284
aVbefall
p9285
aVplantation
p9286
aVpersist
p9287
aVisei
p9288
aVconflict
p9289
aVside
p9290
aVmarital
p9291
aVreader
p9292
aV245
p9293
aV244
p9294
aV247
p9295
aV241
p9296
aV240
p9297
aV243
p9298
aV242
p9299
aV249
p9300
aV248
p9301
aVditch
p9302
aV0060
p9303
aVdwell
p9304
aVherewith
p9305
aVimputation
p9306
aVmodern
p9307
aVseed
p9308
aVseem
p9309
aVseek
p9310
aVakbar
p9311
aVanjala
p9312
aVtransnational
p9313
aVtirikula
p9314
aVdon
p9315
aVdoc
p9316
aValarm
p9317
aVdog
p9318
aVhunger
p9319
aVjurisdiction
p9320
aValvin
p9321
aVcoast
p9322
aVbeyondreasonable
p9323
aVvosarogo
p9324
aVukpc
p9325
aVheight
p9326
aVreplicate
p9327
aVefficacy
p9328
aVkoto
p9329
aVsigatoka
p9330
aVpersonally
p9331
aVunfortunate
p9332
aVmagistrates
p9333
aVleak
p9334
aVshoulder
p9335
aVdignity
p9336
aVpunching
p9337
aVconceal
p9338
aVrestate
p9339
aVfailure
p9340
aVsurrender
p9341
aVoriginating
p9342
aVconstable
p9343
aVmortgagor
p9344
aVdiscriminate
p9345
aVinsolvency
p9346
aVfsc
p9347
aVteeth
p9348
aVwalking
p9349
aVmanager
p9350
aVdepend
p9351
aVreconvene
p9352
aVpromissory
p9353
aVhbm
p9354
aVhbj
p9355
aVshift
p9356
aVhbf
p9357
aVhba
p9358
aVhbc
p9359
aVgavidi
p9360
aVfarden
p9361
aVmaintainable
p9362
aVlondon
p9363
aVguarantee
p9364
aVdestructive
p9365
aVsereana
p9366
aVshield
p9367
aVpw4
p9368
aVpw5
p9369
aVpw2
p9370
aVverily
p9371
aVlisting
p9372
aVmunro
p9373
aVundisclosed
p9374
aVgate
p9375
aVwidespread
p9376
aVtempore
p9377
aVcanada
p9378
aVsuspended
p9379
aVlittle
p9380
aVanyone
p9381
aVbutt
p9382
aV11
p9383
aV10
p9384
aV13
p9385
aV12
p9386
aV15
p9387
aV14
p9388
aV17
p9389
aV16
p9390
aV19
p9391
aV18
p9392
aVgathering
p9393
aVefficient
p9394
aVisolate
p9395
aVpotential
p9396
aVinsanity
p9397
aVsutton
p9398
aVsegregation
p9399
aVaccession
p9400
aVdeportation
p9401
aVexaggeration
p9402
aVsecondary
p9403
aVsurety
p9404
aVaffordable
p9405
aVlegitimacy
p9406
aVaccusation
p9407
aVashwin
p9408
aVmindful
p9409
aVworkshop
p9410
aVcompensatory
p9411
aVinadvertence
p9412
aVdeduction
p9413
aV1890
p9414
aV1892
p9415
aVdiversion
p9416
aVfalsification
p9417
aVroughly
p9418
aVsolve
p9419
aVpile
p9420
aVserver
p9421
aVindisputably
p9422
aVeither
p9423
aVserved
p9424
aVcuvu
p9425
aVconfirm
p9426
aV847
p9427
aV842
p9428
aV840
p9429
aV848
p9430
aVmixed
p9431
aVprovisional
p9432
aVneedlessly
p9433
aVkunatuba
p9434
aVembed
p9435
aVcitation
p9436
aVfile
p9437
aVfilm
p9438
aVfill
p9439
aVtedious
p9440
aVpersonnel
p9441
aVclothe
p9442
aVimportant
p9443
aVconclusive
p9444
aVrecklessness
p9445
aVoral
p9446
aVsushil
p9447
aVdifference
p9448
aVsusantha
p9449
aVpublic
p9450
aVcompilation
p9451
aVfree
p9452
aVtable
p9453
aVcowardly
p9454
aVusurpation
p9455
aVleonard
p9456
aVsphere
p9457
aVawkward
p9458
aVrefoulement
p9459
aVadvice
p9460
aVresponsibility
p9461
aVinception
p9462
aVassociation
p9463
aVforthright
p9464
aVharm
p9465
aVhari
p9466
aVhare
p9467
aVhard
p9468
aVfist
p9469
aVhart
p9470
aVorient
p9471
aVprosecution
p9472
aVvitiate
p9473
aVsloan
p9474
aVdisobedience
p9475
aVlawrence
p9476
aVplot
p9477
aVpredate
p9478
aVmudaliar
p9479
aVpurposive
p9480
aVleast
p9481
aV182
p9482
aV180
p9483
aV184
p9484
aV188
p9485
aV189
p9486
aVlease
p9487
aVencroachment
p9488
aVbasawaiya
p9489
aVbelieve
p9490
aV2020
p9491
aVorders
p9492
aVmost
p9493
aVgoodwill
p9494
aVroneel
p9495
aVoverride
p9496
aVtheft
p9497
aVpenaia
p9498
aVmerchandise
p9499
aVremove
p9500
aVregistrable
p9501
aVlaches
p9502
aVunfettered
p9503
aVtompkins
p9504
aVforthcoming
p9505
aVmaterially
p9506
aVcomplement
p9507
aVbarrack
p9508
aVreverse
p9509
aVcolati
p9510
aVelliot
p9511
aVeviction
p9512
aVsimply
p9513
aVconsuming
p9514
aVinoke
p9515
aVrao
p9516
aVunnecessarily
p9517
aV640
p9518
aVray
p9519
aV644
p9520
aV704
p9521
aV646
p9522
aV648
p9523
aVopenly
p9524
aVletting
p9525
aVsuperficial
p9526
aVdeliberately
p9527
aVeducator
p9528
aVjudgement
p9529
aVappal
p9530
aVmartial
p9531
aVjewelry
p9532
aV308
p9533
aVaau0056
p9534
aVconstraint
p9535
aVincumbit
p9536
aVsteven
p9537
aVnsw
p9538
aVopponent
p9539
aVchaudhary
p9540
aVboys
p9541
aVexploration
p9542
aVsingle
p9543
aVilaisa
p9544
aVprepared
p9545
aVenrichment
p9546
aVaccuse
p9547
aVmareva
p9548
aV3m
p9549
aVirreparable
p9550
aV3a
p9551
aV3d
p9552
aVexchange
p9553
aVjointly
p9554
aVimplicit
p9555
aV38
p9556
aV33
p9557
aV31
p9558
aV30
p9559
aV37
p9560
aV36
p9561
aV35
p9562
aV34
p9563
aVexistent
p9564
aVupcoming
p9565
aVoct
p9566
aVreserved
p9567
aVdemocracy
p9568
aVravuniwa
p9569
aVambiguous
p9570
aVbind
p9571
aVinstitutional
p9572
aVreconstruct
p9573
aVagricultural
p9574
aVextradition
p9575
aVmorris
p9576
aVsalesman
p9577
aV586
p9578
aV585
p9579
aV582
p9580
aV583
p9581
aV580
p9582
aV581
p9583
aV588
p9584
aV589
p9585
aVinteraction
p9586
aVstrategic
p9587
aVtailevu
p9588
aVunspecified
p9589
aVroche
p9590
aVmid
p9591
aVmis
p9592
aVfrederick
p9593
aVstaff
p9594
aVinferior
p9595
aVindorse
p9596
aVjeremaia
p9597
aVenhanced
p9598
aVsegment
p9599
aVtaking
p9600
aVafraid
p9601
aVaa
p9602
aVvolunteer
p9603
aVmulti
p9604
aVimbalance
p9605
aVat
p9606
aValmost
p9607
aVdissent
p9608
aVav
p9609
aVnarendra
p9610
aVinfer
p9611
aVmcpherson
p9612
aVnumbered
p9613
aVmuscle
p9614
aVarising
p9615
aVorthopaedic
p9616
aVadd
p9617
aVmatch
p9618
aVadi
p9619
aVathe
p9620
aVaccessible
p9621
aVproper
p9622
aVabout
p9623
aVfunctional
p9624
aVilluminate
p9625
aVwheresoever
p9626
aV701
p9627
aVrepeated
p9628
aVinfanticide
p9629
aV25in
p9630
aVenterprises
p9631
aVcraft
p9632
aVviolate
p9633
aVcontravention
p9634
aVunder
p9635
aVconjecture
p9636
aVjack
p9637
aVcarryout
p9638
aVbicycle
p9639
aVconsistent
p9640
aVsolemn
p9641
aVprecede
p9642
aVpunishment
p9643
aVstrap
p9644
aVlos
p9645
aVinstall
p9646
aVbadly
p9647
aVsalote
p9648
aVcriminalization
p9649
aV41st
p9650
aVultimate
p9651
aVlevuka
p9652
aVclr
p9653
aVtourist
p9654
aVtourism
p9655
aVpractising
p9656
aVdepress
p9657
aVkuwait
p9658
aVfilimoni
p9659
aVritual
p9660
aVcorrectness
p9661
aVhopeless
p9662
aVpreambular
p9663
aVtoy
p9664
aVtop
p9665
aVton
p9666
aVtoo
p9667
aVinconvenient
p9668
aVmurder
p9669
aVsolicitor
p9670
aV10th
p9671
aVbotswana
p9672
aV1968
p9673
aV1969
p9674
aV2006s
p9675
aV1965
p9676
aV1966
p9677
aV1960
p9678
aV1963
p9679
aV2006l
p9680
aVthough
p9681
aVplenty
p9682
aVspencer
p9683
aVreputation
p9684
aVmanifestation
p9685
aVlodge
p9686
aVcontinuity
p9687
aVhostility
p9688
aVerupt
p9689
aVaccede
p9690
aVirregular
p9691
aVvariance
p9692
aVexplanatory
p9693
aVclinic
p9694
aVlitigant
p9695
aVquickly
p9696
aVexpected
p9697
aVdept
p9698
aVsuggest
p9699
aVmother
p9700
aV5m
p9701
aVissuing
p9702
aVcultural
p9703
aVjudge
p9704
aV59
p9705
aV55
p9706
aV54
p9707
aV56
p9708
aVdishonest
p9709
aV50
p9710
aV53
p9711
aVarbitrary
p9712
aVsuccessfully
p9713
aVproceeding
p9714
aVeverything
p9715
aVtechnicality
p9716
aVenunciate
p9717
aVdiscount
p9718
aVchapter
p9719
aVrosedale
p9720
aVcivic
p9721
aVcivil
p9722
aVpetroleum
p9723
aVobtaining
p9724
aVtransform
p9725
aVseeker
p9726
aVintolerance
p9727
aVattempted
p9728
aVkoroi
p9729
aVfaithful
p9730
aVwhereas
p9731
aVformalize
p9732
aVbrief
p9733
aVilaitia
p9734
aVcoach
p9735
aVdiscern
p9736
aVpromoting
p9737
aVsireli
p9738
aVfederation
p9739
aVbulamainaivalu
p9740
aVvoucher
p9741
aVnoticeable
p9742
aVchalmers
p9743
aVguilty
p9744
aVhospitality
p9745
aVhandley
p9746
aVdevendra
p9747
aVanare
p9748
aVstates
p9749
aVprovoke
p9750
aVparliamentary
p9751
aVparamount
p9752
aVimpartial
p9753
aVcommodity
p9754
aVexecute
p9755
aVclutch
p9756
aVindividually
p9757
aVinadequacy
p9758
aVgram
p9759
aVgrab
p9760
aVplace
p9761
aVindispensable
p9762
aVkinoya
p9763
aVengineer
p9764
aVian
p9765
aVdistrict
p9766
aVwelfare
p9767
aVlegally
p9768
aVpopulation
p9769
aVseru
p9770
aVserf
p9771
aVbuliruarua
p9772
aVmalta
p9773
aVphillips
p9774
aVfcr
p9775
aVclearer
p9776
aVfca
p9777
aVadopt
p9778
aVuncle
p9779
aVtrespass
p9780
aVkoya
p9781
aVhedge
p9782
aVworkman
p9783
aVcircle
p9784
aVsubsequent
p9785
aVoutside
p9786
aVafterwards
p9787
aVcolony
p9788
aVsatisfaction
p9789
aVestonia
p9790
aVmyself
p9791
aVmutunayagam
p9792
aVdiligent
p9793
aVnitesh
p9794
aVtrip
p9795
aVlutu
p9796
aVrefusal
p9797
aVreward
p9798
aVaccepted
p9799
aVfurniture
p9800
aVbracelet
p9801
aVwrongful
p9802
aVshortcoming
p9803
aVdenarau
p9804
aVregard
p9805
aVpromote
p9806
aVcompel
p9807
aVcallover
p9808
aVbriefly
p9809
aVsparingly
p9810
aVapparel
p9811
aVdist
p9812
aVchinese
p9813
aVdisc
p9814
aVwhat
p9815
aVfolium
p9816
aV2004s
p9817
aVidentifiable
p9818
aVinfringe
p9819
aV1947
p9820
aV1945
p9821
aVproceed
p9822
aVknown
p9823
aVtortious
p9824
aVallege
p9825
aV619
p9826
aVcbv0005
p9827
aVcbv0007
p9828
aV616
p9829
aV617
p9830
aV614
p9831
aV615
p9832
aVchiefly
p9833
aVdeveloped
p9834
aVmoulton
p9835
aVdeveloper
p9836
aVresort
p9837
aVstrange
p9838
aVstephen
p9839
aVorganised
p9840
aVtrack
p9841
aVunexplained
p9842
aVwlr
p9843
aVnotify
p9844
aVdisqualification
p9845
aVarchitect
p9846
aVfinding
p9847
aVdonor
p9848
aVunremarkable
p9849
aV77
p9850
aV75
p9851
aV74
p9852
aV73
p9853
aV72
p9854
aV70
p9855
aVnothing
p9856
aV79
p9857
aV78
p9858
aVdeane
p9859
aVcontracted
p9860
aVlateef
p9861
aVmistaken
p9862
aVcritically
p9863
aVinvestigate
p9864
aVmechanically
p9865
aVrod
p9866
aVdownturn
p9867
aVlatin
p9868
aVfranchise
p9869
aVattainment
p9870
aV54th
p9871
aVcontext
p9872
aVravi
p9873
aVdecline
p9874
aVpolitical
p9875
aVdunn
p9876
aV890
p9877
aVliterature
p9878
aV898
p9879
aVstateless
p9880
aVtablet
p9881
aVvendor
p9882
aVessential
p9883
aVemanate
p9884
aV1254
p9885
aV1250
p9886
aVdormant
p9887
aVmilitia
p9888
aVplan
p9889
aVplethora
p9890
aVabovementioned
p9891
aVsections
p9892
aVusurp
p9893
aVfiled
p9894
aVraising
p9895
aVrainy
p9896
aVdemocratically
p9897
aVvice
p9898
aVremit
p9899
aVonce
p9900
aVbreathing
p9901
aVseized
p9902
aVplead
p9903
aVcapital
p9904
aVsophistication
p9905
aVincriminating
p9906
aVdelana
p9907
aVconsumption
p9908
aVpossession
p9909
aVdiplock
p9910
aVanywhere
p9911
aVcompatible
p9912
aVtamper
p9913
aVbrian
p9914
aVinstead
p9915
aVdominion
p9916
aVabuse
p9917
aVhonestly
p9918
aVnecklace
p9919
aV133
p9920
aV132
p9921
aV131
p9922
aV137
p9923
aV136
p9924
aV135
p9925
aV134
p9926
aV139
p9927
aV138
p9928
aVrestrain
p9929
aVunderpin
p9930
aVcav0001
p9931
aVwashington
p9932
aVcav0002
p9933
aVcav0005
p9934
aVflee
p9935
aVlatvia
p9936
aVbarnett
p9937
aVrelated
p9938
aVcouldnt
p9939
aVprovident
p9940
aVlta
p9941
aVbirthday
p9942
aVltk
p9943
aVrenovation
p9944
aVtheir
p9945
aVboil
p9946
aVshell
p9947
aVshelf
p9948
aVjuly
p9949
aVwhich
p9950
aVclash
p9951
aVclass
p9952
aVstatute
p9953
aVnadawa
p9954
aV1995l
p9955
aV1995s
p9956
aVajmal
p9957
aVintoxicate
p9958
aVsubstantive
p9959
aVexam
p9960
aVhindu
p9961
aVprivity
p9962
aVhindi
p9963
aVpresent
p9964
aVunlike
p9965
aVapprehend
p9966
aVencouragement
p9967
aVunite
p9968
aVunity
p9969
aVstudent
p9970
aVfirstly
p9971
aVtendering
p9972
aVsmith
p9973
aVunprecedented
p9974
aVrajeshwar
p9975
aVscared
p9976
aVdemeanor
p9977
aVrealistic
p9978
aVswear
p9979
aVhedstrom
p9980
aVatkinson
p9981
aVbelow
p9982
aVruling
p9983
aVrestraining
p9984
aVfrustrate
p9985
aVrichardson
p9986
aVeligible
p9987
aVturpitude
p9988
aVhague
p9989
aVchassis
p9990
aVcalculate
p9991
aVcancellation
p9992
aVclassification
p9993
aVbrought
p9994
aVvested
p9995
aVpassport
p9996
aVbrings
p9997
aVglass
p9998
aV91
p9999
aV90
p10000
aV93
p10001
aV92
p10002
aV95
p10003
aV94
p10004
aV97
p10005
aV96
p10006
aVmakoi
p10007
aVbroadbridge
p10008
aV309
p10009
aVvilimoni
p10010
aVvilimone
p10011
aValias
p10012
aVtelecom
p10013
aVmarginalization
p10014
aVweinberg
p10015
aVmisfortune
p10016
aVtaoi
p10017
aVimprisonment
p10018
aVatm
p10019
aVaffirmat
p10020
aVgilbert
p10021
aVranging
p10022
aVdevan
p10023
aVrusiate
p10024
aVseason
p10025
aVnineteenth
p10026
aVsevanaia
p10027
aVundue
p10028
aVturnbull
p10029
aVemphatically
p10030
aVgreene
p10031
aVexpediency
p10032
aVnolle
p10033
aVunexpectedly
p10034
aV2nd
p10035
aVmotibhai
p10036
aVeastern
p10037
aVcommerce
p10038
aVflooding
p10039
aVprosperity
p10040
aVownership
p10041
aVvakalalabure
p10042
aVapete
p10043
aVdistribute
p10044
aVsucceeding
p10045
aVremedial
p10046
aVprison
p10047
aVremind
p10048
aVmalnutrition
p10049
aVright
p10050
aVkrishneel
p10051
aVjalil
p10052
aVsurveillance
p10053
aVconsignment
p10054
aVmultiply
p10055
aVjane
p10056
aVtonne
p10057
aVsteamship
p10058
aVwarn
p10059
aVpush
p10060
aVguest
p10061
aVbusy
p10062
aVconsolidation
p10063
aV1700
p10064
aVunaware
p10065
aVbainivalu
p10066
aVbulldozer
p10067
aVinsignificant
p10068
aVprediction
p10069
aVmilligram
p10070
aVchitty
p10071
aVbi
p10072
aVcontemplate
p10073
aVbp
p10074
aVconfidentiality
p10075
aVby
p10076
aVencroach
p10077
aVrefrain
p10078
aVappendix
p10079
aVprivy
p10080
aVimmune
p10081
aVsummer
p10082
aV307
p10083
aVdovi
p10084
aVstress
p10085
aVlighter
p10086
aVbeaumont
p10087
aV094
p10088
aV095
p10089
aV096
p10090
aVitemise
p10091
aV93s
p10092
aVrupeni
p10093
aVquite
p10094
aVunnamed
p10095
aVremainder
p10096
aVtraining
p10097
aVmassive
p10098
aVclause
p10099
aVrasaqio
p10100
aVreopen
p10101
aVencourages
p10102
aVdraft
p10103
aVwilliams
p10104
aVsan
p10105
aVsam
p10106
aVsad
p10107
aVsay
p10108
aVsat
p10109
aVaside
p10110
aVroadside
p10111
aVtally
p10112
aVknew
p10113
aVpages
p10114
aVreview
p10115
aVuppermost
p10116
aVdispute
p10117
aVdissimilar
p10118
aVoutlet
p10119
aVprime
p10120
aVprima
p10121
aVlandlord
p10122
aVinstated
p10123
aVsriskandarajah
p10124
aVcolliery
p10125
aVprominence
p10126
aVnzca
p10127
aVregularity
p10128
aVhelpfully
p10129
aVendanger
p10130
aVrenewable
p10131
aVconsiders
p10132
aVbailiff
p10133
aVscholarship
p10134
aV217
p10135
aV214
p10136
aV215
p10137
aV210
p10138
aV218
p10139
aVdisperse
p10140
aVinstrument
p10141
aVbandage
p10142
aVstranger
p10143
aVstationary
p10144
aVsatendra
p10145
aVrevisit
p10146
aV2010s
p10147
aV23rd
p10148
aVstone
p10149
aVtarai
p10150
aVmeal
p10151
aVneighbor
p10152
aVmean
p10153
aVburning
p10154
aVwade
p10155
aVsawani
p10156
aVburglar
p10157
aVdeposited
p10158
aVstealing
p10159
aVnavy
p10160
aVindar
p10161
aV1996s
p10162
aVnelson
p10163
aVcollege
p10164
aVstatelessness
p10165
aVhick
p10166
aVintroductory
p10167
aVbrutal
p10168
aV246
p10169
aVstruggle
p10170
aVvia
p10171
aVvii
p10172
aVvis
p10173
aVvip
p10174
aVsend
p10175
aVletterhead
p10176
aVselect
p10177
aVpollock
p10178
aVphillip
p10179
aVmall
p10180
aVmali
p10181
aVmale
p10182
aVmala
p10183
aV469
p10184
aVplant
p10185
aVplane
p10186
aVplank
p10187
aVbroadcasting
p10188
aVmadraiwiwi
p10189
aV498
p10190
aV499
p10191
aV494
p10192
aV495
p10193
aV496
p10194
aV491
p10195
aV492
p10196
aVthereon
p10197
aVally
p10198
aVdesignation
p10199
aVloosely
p10200
aVchandra
p10201
aVengland
p10202
aVdiffer
p10203
aVsecretariat
p10204
aVminimize
p10205
aVviliame
p10206
aVisikeli
p10207
aVnasal
p10208
aVnasau
p10209
aVlounge
p10210
aVtawake
p10211
aVdefended
p10212
aVunjustly
p10213
aVequity
p10214
aVdependent
p10215
aVaffront
p10216
aVsurrendering
p10217
aVpreparation
p10218
aVmovie
p10219
aVeurope
p10220
aVdisallow
p10221
aVimproved
p10222
aVbarely
p10223
aVload
p10224
aVindefinite
p10225
aVengage
p10226
aVrobin
p10227
aVpound
p10228
aVchase
p10229
aVvesikula
p10230
aVdivulge
p10231
aVunto
p10232
aV335
p10233
aV334
p10234
aV331
p10235
aVquest
p10236
aV332
p10237
aVimposed
p10238
aVdisorder
p10239
aVpertaining
p10240
aVreligion
p10241
aVviz
p10242
aVnowhere
p10243
aVblackburn
p10244
aV06th
p10245
aVencumbrance
p10246
aVappropriate
p10247
aVreimbursement
p10248
aVreconcile
p10249
aVlikewise
p10250
aVfifita
p10251
aV07th
p10252
aVintact
p10253
aVthematic
p10254
aVrenounce
p10255
aVwaimanu
p10256
aVsovau
p10257
aVrecruitment
p10258
aVapparatus
p10259
aVrooney
p10260
aVapisai
p10261
aVconsideration
p10262
aVgrandchild
p10263
aVcounsels
p10264
aVillegal
p10265
aVpatrol
p10266
aVpour
p10267
aVfulfill
p10268
aVrfmf
p10269
aVestablishment
p10270
aVdurga
p10271
aVtier
p10272
aV22nd
p10273
aVredundant
p10274
aVlakshman
p10275
aVdoubtful
p10276
aVanimal
p10277
aVtransparent
p10278
aVsociety
p10279
aVhouse
p10280
aVthrust
p10281
aVanita
p10282
aVkapadia
p10283
aVextrinsic
p10284
aVprecautionary
p10285
aVaccompany
p10286
aVunoccupied
p10287
aVnegatively
p10288
aVsukh
p10289
aVpersistence
p10290
aVvoyage
p10291
aVvisa
p10292
aV07
p10293
aVdollar
p10294
aVleasehold
p10295
aVvacancy
p10296
aVrough
p10297
aVtrivial
p10298
aVpause
p10299
aVfamiliar
p10300
aVlucky
p10301
aVhole
p10302
aVintervening
p10303
aVwire
p10304
aVkalabu
p10305
aVexplosive
p10306
aVthurairaja
p10307
aVcoercive
p10308
aVwaste
p10309
aVexcessively
p10310
aVjusticiable
p10311
aVintra
p10312
aVjoyce
p10313
aV0f
p10314
aVcovenant
p10315
aVsada
p10316
aVnationally
p10317
aVdayal
p10318
aVless
p10319
aVarrest
p10320
aVcombine
p10321
aVcriminalize
p10322
aVfive
p10323
aVbelgium
p10324
aVdescendant
p10325
aVinitiative
p10326
aVliquidation
p10327
aVrequested
p10328
aVrokonabete
p10329
aVjoji
p10330
aVschedule
p10331
aVafoot
p10332
aVmere
p10333
aVmonday
p10334
aVdismantle
p10335
aVchance
p10336
aVmercenary
p10337
aVgrandparent
p10338
aVeffectually
p10339
aVedward
p10340
aVwhist
p10341
aVilliteracy
p10342
aVirrevocable
p10343
aVconsisting
p10344
aVmiscarriage
p10345
aVenvoy
p10346
aVvulnerability
p10347
aVlal
p10348
aVlab
p10349
aVlac
p10350
aVlay
p10351
aVlat
p10352
aVlau
p10353
aVlaw
p10354
aVsatisfied
p10355
aVsony
p10356
aVspontaneous
p10357
aVrecreational
p10358
aVeventually
p10359
aVbreak
p10360
aV456
p10361
aVbread
p10362
aV379
p10363
aV378
p10364
aV370
p10365
aV373
p10366
aV372
p10367
aV375
p10368
aV374
p10369
aV377
p10370
aVobservance
p10371
aVnetwork
p10372
aVdiesel
p10373
aVcommercially
p10374
aVoppose
p10375
aVtarget
p10376
aViron
p10377
aVforced
p10378
aVadvantageous
p10379
aVincomplete
p10380
aVlacuna
p10381
aVoppress
p10382
aVprecarious
p10383
aVrespectfully
p10384
aVprotocol
p10385
aVconsciousness
p10386
aVhussain
p10387
aVseniloli
p10388
aVsteed
p10389
aVimplication
p10390
aVerroneous
p10391
aVunfold
p10392
aVmisunderstand
p10393
aVthrice
p10394
aVinhibit
p10395
aVnil
p10396
aVswell
p10397
aVquoted
p10398
aVvictim
p10399
aV536
p10400
aV535
p10401
aV534
p10402
aV533
p10403
aV532
p10404
aV531
p10405
aV530
p10406
aV539
p10407
aV538
p10408
aVplowman
p10409
aVunavoidable
p10410
aVmarketing
p10411
aVply
p10412
aVplc
p10413
aVassertion
p10414
aVindecency
p10415
aVclinical
p10416
aVjayasena
p10417
aVscandalous
p10418
aVabstract
p10419
aVopportunistic
p10420
aVshrine
p10421
aVholding
p10422
aVconvincing
p10423
aVregime
p10424
aVramification
p10425
aV3am
p10426
aVseemingly
p10427
aVbirkett
p10428
aVupper
p10429
aVdiscover
p10430
aVyanuca
p10431
aVtuiketei
p10432
aV1019
p10433
aVpetitioner
p10434
aVmarked
p10435
aVsincerely
p10436
aVmarket
p10437
aVchallenging
p10438
aVclub
p10439
aVenvelope
p10440
aVtabua
p10441
aVabort
p10442
aVvoce
p10443
aV1838
p10444
aVdisparate
p10445
aVspeeding
p10446
aVdiscuss
p10447
aVexpedite
p10448
aVjames
p10449
aVcairn
p10450
aVkant
p10451
aVaccomplish
p10452
aVdivendra
p10453
aVgreig
p10454
aVmunicipality
p10455
aVyourself
p10456
aVcassava
p10457
aVthat
p10458
aVthan
p10459
aVvolau
p10460
aVcraig
p10461
aVdeparture
p10462
aVbegin
p10463
aVtitle
p10464
aVproclamation
p10465
aVsamuel
p10466
aV5in
p10467
aVis
p10468
aVleather
p10469
aVframer
p10470
aViv
p10471
aVreluctantly
p10472
aVlearning
p10473
aVcultivator
p10474
aVworry
p10475
aVenjoyment
p10476
aVcoordinate
p10477
aVcharged
p10478
aVimprovement
p10479
aVcc
p10480
aVcb
p10481
aVmalcolm
p10482
aVoffence
p10483
aVmigrant
p10484
aVvirendra
p10485
aVphysiotherapy
p10486
aVadjournment
p10487
aVormrod
p10488
aV1933
p10489
aV1932
p10490
aV1931
p10491
aV1930
p10492
aV1937
p10493
aV1936
p10494
aV1935
p10495
aV1934
p10496
aV1938
p10497
aVcomparison
p10498
aVtestimony
p10499
aVprocessor
p10500
aVelementary
p10501
aVnowadays
p10502
aVbalapatabendi
p10503
aVfixture
p10504
aVattainable
p10505
aV2003s
p10506
aVappliance
p10507
aV2003l
p10508
aVcarpenter
p10509
aVkaloumaira
p10510
aVrepay
p10511
aVsharmas
p10512
aVrenege
p10513
aVcustomary
p10514
aVdreadful
p10515
aVeverywhere
p10516
aVbarrick
p10517
aVeldest
p10518
aVsecurely
p10519
aVstigmatize
p10520
aVlaqere
p10521
aVsanmogam
p10522
aVexceptionally
p10523
aVamount
p10524
aVcommences
p10525
aVregrettable
p10526
aVcommenced
p10527
aVregrettably
p10528
aVraza
p10529
aVreservoir
p10530
aVmarawa
p10531
aVlateral
p10532
aVradical
p10533
aVmotivated
p10534
aVpayer
p10535
aVquantum
p10536
aVevent
p10537
aVviability
p10538
aVnorwich
p10539
aVravin
p10540
aVrevolutionary
p10541
aVliaison
p10542
aVtaxable
p10543
aVsentencer
p10544
aVsentences
p10545
aVconcentration
p10546
aVscotland
p10547
aVhospitalise
p10548
aVwatt
p10549
aVmobile
p10550
aVlordship
p10551
aVmultilateral
p10552
aVconvinced
p10553
aVsubsection
p10554
aVintensify
p10555
aVprobably
p10556
aVsolanki
p10557
aVisoa
p10558
aVsubnational
p10559
aVwhatever
p10560
aVwalter
p10561
aV0004
p10562
aV0005
p10563
aV0007
p10564
aV0001
p10565
aV0002
p10566
aV0008
p10567
aVdeter
p10568
aVhbe
p10569
aVfleet
p10570
aVunpromising
p10571
aVfulfilment
p10572
aVabstain
p10573
aVtrafficking
p10574
aVtoyota
p10575
aVmanifest
p10576
aV33rd
p10577
aVparade
p10578
aVsome
p10579
aVtestator
p10580
aVbruising
p10581
aVliggett
p10582
aVreiterates
p10583
aVfdb
p10584
aVobjection
p10585
aVdrau
p10586
aVdraw
p10587
aVkoro
p10588
aVwilliam
p10589
aVdrag
p10590
aVstructure
p10591
aVlemeki
p10592
aVproposition
p10593
aVoclock
p10594
aVstiff
p10595
aVgender
p10596
aVcarter
p10597
aVvolatile
p10598
aVuraia
p10599
aVstabilization
p10600
aVaustria
p10601
aVstage
p10602
aVconformity
p10603
aVwharf
p10604
aVenclose
p10605
aVcruise
p10606
aVbrook
p10607
aVhim
p10608
aVpropound
p10609
aVfront
p10610
aVlindsell
p10611
aVprincess
p10612
aVsustainability
p10613
aVappropriateness
p10614
aVprospective
p10615
aVevans
p10616
aVart
p10617
aVquality
p10618
aVprivacy
p10619
aVunequivocal
p10620
aVoccupancy
p10621
aVpunish
p10622
aVmorbidity
p10623
aVaspiration
p10624
aVkalisoqo
p10625
aVneel
p10626
aV292
p10627
aVneed
p10628
aVpurchasing
p10629
aVtactic
p10630
aVsufficiency
p10631
aVupset
p10632
aVvarious
p10633
aVlegitimate
p10634
aVconsecutive
p10635
aVcomputer
p10636
aVdeuba
p10637
aVjosaia
p10638
aVimportance
p10639
aVefficiency
p10640
aVmaximize
p10641
aVhaemorrhage
p10642
aVuplifted
p10643
aVdiversity
p10644
aVvariety
p10645
aVarbitrarily
p10646
aVveretawatini
p10647
aV6am
p10648
aVskill
p10649
aVcoordination
p10650
aVimproper
p10651
aVpeceli
p10652
aVeyewitness
p10653
aVmonetary
p10654
aVoffset
p10655
aV3500
p10656
aVhazardous
p10657
aVsubjective
p10658
aVfinalisation
p10659
aVtechnician
p10660
aVsigned
p10661
aVpiece
p10662
aVoffensive
p10663
aVanimosity
p10664
aV3rd
p10665
aVportion
p10666
aVsimilarity
p10667
aV1866
p10668
aVobstruction
p10669
aVteaching
p10670
aVupdated
p10671
aVmisunderstanding
p10672
aVstolen
p10673
aVsilimaibau
p10674
aVforce
p10675
aV1325
p10676
aVjapanese
p10677
aVpanama
p10678
aVbehavior
p10679
aVmoral
p10680
aVmoran
p10681
aVarmy
p10682
aVrio
p10683
aVdefer
p10684
aVsideline
p10685
aVsate
p10686
aVanswer
p10687
aVfifa
p10688
aVbetter
p10689
aVdifferently
p10690
aVovercome
p10691
aVwidely
p10692
aVweakness
p10693
aVevidentiary
p10694
aVunregistered
p10695
aVgrammar
p10696
aVprinciples
p10697
aVprincipled
p10698
aVboseiwaqa
p10699
aVkoyas
p10700
aVgrade
p10701
aVenumerate
p10702
aV1a
p10703
aVwitnessing
p10704
aVsomewhat
p10705
aVdeserving
p10706
aVanalysis
p10707
aVkean
p10708
aVbroadcast
p10709
aVdefinitely
p10710
aVurgency
p10711
aVchartered
p10712
aVashok
p10713
aVacquit
p10714
aVreconstruction
p10715
aVperceive
p10716
aVlancaster
p10717
aVsail
p10718
aVsavusavu
p10719
aVtolerance
p10720
aVapprehended
p10721
aVtargeting
p10722
aVrecur
p10723
aV168
p10724
aV164
p10725
aV165
p10726
aV166
p10727
aV167
p10728
aV161
p10729
aV162
p10730
aVkankani
p10731
aV679
p10732
aVvegetable
p10733
aV677
p10734
aVovert
p10735
aVleft
p10736
aVjust
p10737
aVparshotam
p10738
aVbackground
p10739
aVspoke
p10740
aVnegat
p10741
aVrakesh
p10742
aVnotorious
p10743
aVrepudiate
p10744
aVstatistic
p10745
aVbola
p10746
aVbold
p10747
aVprakash
p10748
aVlien
p10749
aV1990s
p10750
aVapproximate
p10751
aVdisaggregated
p10752
aVbera
p10753
aVcontinuance
p10754
aVattached
p10755
aVvacate
p10756
aVlocality
p10757
aVdaily
p10758
aVoverdue
p10759
aVperuse
p10760
aVmild
p10761
aVmile
p10762
aVinterrelatedness
p10763
aVmilk
p10764
aVunpleasant
p10765
aV1129
p10766
aVuncontradicted
p10767
aVafghanistan
p10768
aVguardian
p10769
aVclerk
p10770
aVfrench
p10771
aVearthquake
p10772
aVcanadian
p10773
aVmassage
p10774
aVuseful
p10775
aVflexibility
p10776
aVlicensing
p10777
aVpermitted
p10778
aVperu
p10779
aVbennett
p10780
aVrealty
p10781
aVclaim
p10782
aVuruguay
p10783
aVagent
p10784
aVaccessory
p10785
aVswitch
p10786
aVafrican
p10787
aVhassan
p10788
aVyorkshire
p10789
aVours
p10790
aVbusinesswoman
p10791
aVprofiling
p10792
aVresilience
p10793
aVjiuta
p10794
aVdominate
p10795
aVmercantile
p10796
aVcalifornia
p10797
aVministry
p10798
aVremuneration
p10799
aVescort
p10800
aVmining
p10801
aVmutilation
p10802
aVoccupier
p10803
aVoccupied
p10804
aVupgrading
p10805
aVmataiasi
p10806
aVtheatre
p10807
aVnormal
p10808
aV351
p10809
aVtriable
p10810
aVgreed
p10811
aVprecise
p10812
aVdemonstrator
p10813
aVnasinu
p10814
aVcameron
p10815
aVplaintiff
p10816
aVvivrass
p10817
aVparent
p10818
aVcountenance
p10819
aVchildbirth
p10820
aVringleader
p10821
aVtrader
p10822
aVdedicate
p10823
aVcalled
p10824
aVdisciplinary
p10825
aVprecipitate
p10826
aVcluster
p10827
aVdangerously
p10828
aVeveryday
p10829
aVpar
p10830
aVpas
p10831
aVpay
p10832
aVpad
p10833
aVpal
p10834
aVrunning
p10835
aVmortgagee
p10836
aVthey
p10837
aVdisappointed
p10838
aVfulfil
p10839
aVaccomplice
p10840
aVoverly
p10841
aVintrude
p10842
aVnotably
p10843
aVroad
p10844
aVcompliant
p10845
aVdecisive
p10846
aVduchy
p10847
aVproceeds
p10848
aVfactum
p10849
aVaffection
p10850
aVfellow
p10851
aVdunkel
p10852
aVdelineate
p10853
aV451
p10854
aVforget
p10855
aVforty
p10856
aVmoldova
p10857
aVunsworn
p10858
aVfurther
p10859
aVfalsify
p10860
aVfavourably
p10861
aVfavourable
p10862
aVrevisional
p10863
aVdistinct
p10864
aVparticular
p10865
aVfinalization
p10866
aVpractical
p10867
aVexpeditiously
p10868
aVshare
p10869
aVsharp
p10870
aV712
p10871
aVsalaitoga
p10872
aVlookout
p10873
aVsanjeev
p10874
aVdesirability
p10875
aVoil
p10876
aVfurtherance
p10877
aVobtains
p10878
aVcreditor
p10879
aVpermal
p10880
aVdissatisfy
p10881
aVdivorce
p10882
aVstatement
p10883
aVdrunkenness
p10884
aVwellington
p10885
aVappellate
p10886
aVorganise
p10887
aVrelation
p10888
aVrelocate
p10889
aVelapse
p10890
aVwrongfully
p10891
aVvisiting
p10892
aVannual
p10893
aVconsume
p10894
aV96s
p10895
aVmeeting
p10896
aVrupture
p10897
aV960
p10898
aVcoventry
p10899
aVitself
p10900
aVitaly
p10901
aVcontravene
p10902
aVyesterday
p10903
aVentry
p10904
aVjosefa
p10905
aVsnap
p10906
aVbig
p10907
aVbid
p10908
aVredeem
p10909
aVbit
p10910
aVbiu
p10911
aVoften
p10912
aVextremism
p10913
aVourselves
p10914
aVdefamation
p10915
aVeliminate
p10916
aVscalp
p10917
aVpajero
p10918
aVseriousness
p10919
aVcausation
p10920
aVproportional
p10921
aVoverpower
p10922
aVautonomous
p10923
aVjosevata
p10924
aVvicious
p10925
aVquarterly
p10926
aVstaffing
p10927
aVabu0001
p10928
aVnatadola
p10929
aVuncomfortable
p10930
aVdepression
p10931
aVreconciliation
p10932
aVdevanesh
p10933
aVsinu
p10934
aVsink
p10935
aVothers
p10936
aVsing
p10937
aVsine
p10938
aVcontradiction
p10939
aVproof
p10940
aVbulewa
p10941
aVpayne
p10942
aV844
p10943
aVrecklessly
p10944
aVtan
p10945
aVmix
p10946
aVenvisage
p10947
aVwhereof
p10948
aVdp
p10949
aVsteyn
p10950
aVdad
p10951
aVjunction
p10952
aVwarner
p10953
aVactivate
p10954
aVharold
p10955
aVwilkinson
p10956
aVindent
p10957
aVdiscomfort
p10958
aVkotobalavu
p10959
aVverata
p10960
aVethnic
p10961
aVpalestine
p10962
aVgear
p10963
aVlim
p10964
aVindorsed
p10965
aVlin
p10966
aVunavailability
p10967
aVdemonstration
p10968
aVsisa
p10969
aVherman
p10970
aVgather
p10971
aVirregularity
p10972
aVintoxication
p10973
aVselection
p10974
aVportfolio
p10975
aVexceptional
p10976
aVoccupant
p10977
aVmisappropriate
p10978
aVaccord
p10979
aVroutine
p10980
aVcomplicate
p10981
aV45am
p10982
aVotherwise
p10983
aVwatkins
p10984
aVtremendous
p10985
aV465
p10986
aV464
p10987
aV466
p10988
aV461
p10989
aV460
p10990
aV462
p10991
aVresultant
p10992
aVplain
p10993
aVbartlam
p10994
aVhandwriting
p10995
aVclaimed
p10996
aVswift
p10997
aV723
p10998
aVinjured
p10999
aVtighten
p11000
aV720
p11001
aVflout
p11002
aVjudgment
p11003
aVposition
p11004
aVproximity
p11005
aVexecutive
p11006
aVevince
p11007
aVheed
p11008
aVarraign
p11009
aVsoft
p11010
aVhose
p11011
aVexpiry
p11012
aVhost
p11013
aVpetty
p11014
aVstephenson
p11015
aVbrand
p11016
aVdangerous
p11017
aVenlargement
p11018
aVprevalent
p11019
aVyell
p11020
aV8th
p11021
aVmadanavosa
p11022
aVsleep
p11023
aVparis
p11024
aVvicissitude
p11025
aVlure
p11026
aVtimoci
p11027
aVvenue
p11028
aVadmissible
p11029
aVscrutinize
p11030
aVvoluminous
p11031
aVicescr
p11032
aVchanged
p11033
aVyork
p11034
aVasset
p11035
aVadjourn
p11036
aVmust
p11037
aVhenry
p11038
aVappraisal
p11039
aVcomparative
p11040
aVfeasible
p11041
aVadjacent
p11042
aVpatent
p11043
aVrecurrent
p11044
aVcarnal
p11045
aVdigest
p11046
aVmongolia
p11047
aVwriting
p11048
aVbingham
p11049
aVakili
p11050
aVdriving
p11051
aVperception
p11052
aVwhereupon
p11053
aVevil
p11054
aVindustrial
p11055
aVheywood
p11056
aVgoundar
p11057
aVduress
p11058
aVbutterworths
p11059
aVnominate
p11060
aV1977
p11061
aVtaint
p11062
aVrohit
p11063
aV1971
p11064
aVisolated
p11065
aVgenital
p11066
aVinexcusable
p11067
aVrogers
p11068
aVraitamata
p11069
aVqueen
p11070
aVearth
p11071
aVleweniqila
p11072
aVsaukilagi
p11073
aVcollusion
p11074
aVnirmala
p11075
aV34th
p11076
aVtemptation
p11077
aVliaise
p11078
aVdedication
p11079
aVbathroom
p11080
aVconfident
p11081
aVbible
p11082
aVcatch
p11083
aV908
p11084
aVcycle
p11085
aVdetained
p11086
aVdetainee
p11087
aVunwanted
p11088
aVadvanced
p11089
aVsqueeze
p11090
aVconvict
p11091
aV2007l
p11092
aVwebb
p11093
aVrespondent
p11094
aVuncontrolled
p11095
aVunbeknown
p11096
aVcoastal
p11097
aVdeny
p11098
aVviva
p11099
aVprematurely
p11100
aVimpropriety
p11101
aVdepot
p11102
aVserious
p11103
aVremarkable
p11104
aVobviate
p11105
aVabhorrent
p11106
aVpoliceman
p11107
aVbrother
p11108
aV1231
p11109
aV1238
p11110
aVnavigation
p11111
aVvoreqe
p11112
aVtribunal
p11113
aVferry
p11114
aVattain
p11115
aVendorsement
p11116
aVlevy
p11117
aVlevu
p11118
aVclassroom
p11119
aVsmellie
p11120
aVdilemma
p11121
aVwallace
p11122
aVdistributor
p11123
aVkeni
p11124
aVmalolo
p11125
aVmotion
p11126
aVsurviving
p11127
aVmotel
p11128
aVlabasa
p11129
aVwide
p11130
aVsolomone
p11131
aV037
p11132
aV55th
p11133
aV035
p11134
aVmultiple
p11135
aVplaying
p11136
aVquantity
p11137
aVslope
p11138
aVcautioned
p11139
aVmajor
p11140
aVnaked
p11141
aVunlicensed
p11142
aVignored
p11143
aVnauru
p11144
aVcharan
p11145
aVarrival
p11146
aVcome
p11147
aVreaction
p11148
aVprovocation
p11149
aVcontinuation
p11150
aVhoward
p11151
aVpeaceful
p11152
aVjope
p11153
aVpanapasa
p11154
aVunsatisfactory
p11155
aVinspicitur
p11156
aVhac0007
p11157
aVmockery
p11158
aVunconstitutional
p11159
aVoxford
p11160
aVviolent
p11161
aVjoni
p11162
aVinspect
p11163
aVdetermine
p11164
aVinadvertent
p11165
aVvalley
p11166
aVfish
p11167
aVcabinet
p11168
aVfabricate
p11169
aVtoilet
p11170
aVcinema
p11171
aVcontributory
p11172
aVbritain
p11173
aVsaimoni
p11174
aVsymbol
p11175
aVdiven
p11176
aVhereunder
p11177
aVinia
p11178
aVenhance
p11179
aVfunctioning
p11180
aVaptly
p11181
aVanniversary
p11182
aVallows
p11183
aVsuddenly
p11184
aVsukuna
p11185
aVamputate
p11186
aVreflect
p11187
aVtrevor
p11188
aVgroundless
p11189
aVreturn
p11190
aVframework
p11191
aVjefford
p11192
aVneedless
p11193
aVgeneration
p11194
aVundertake
p11195
aVthreat
p11196
aVrelate
p11197
aVinteract
p11198
aVgrovit
p11199
aV181
p11200
aV186
p11201
aV187
p11202
aVstall
p11203
aVcleaner
p11204
aValike
p11205
aVcropper
p11206
aVfong
p11207
aVfont
p11208
aVbetray
p11209
aVdump
p11210
aVunsure
p11211
aVarm
p11212
aVopposition
p11213
aVtoohey
p11214
aV1861
p11215
aV1863
p11216
aV1862
p11217
aV1865
p11218
aVheighten
p11219
aVpervade
p11220
aVrid
p11221
aVrib
p11222
aVethnicity
p11223
aVlengthy
p11224
aVinference
p11225
aVrajnesh
p11226
aVnaigulevu
p11227
aVunlimited
p11228
aVincidental
p11229
aVindictable
p11230
aVprof
p11231
aVintense
p11232
aVcredible
p11233
aVs169
p11234
aVbecause
p11235
aVnamadi
p11236
aVtentative
p11237
aV119
p11238
aVnarawa
p11239
aVfotofili
p11240
aVabode
p11241
aV717
p11242
aV714
p11243
aV713
p11244
aV711
p11245
aV710
p11246
aVleader
p11247
aVnoted
p11248
aVdiscontinuance
p11249
aVammunition
p11250
aVmetre
p11251
aVrattan
p11252
aVapple
p11253
aVmotor
p11254
aVapply
p11255
aVdecember
p11256
aVporch
p11257
aVcooperate
p11258
aVpenis
p11259
aVannoy
p11260
aVannot
p11261
aVtat
p11262
aVtap
p11263
aVtax
p11264
aVdependence
p11265
aVtag
p11266
aVcondescend
p11267
aVtab
p11268
aVserial
p11269
aVtai
p11270
aVtak
p11271
aVjoseva
p11272
aVfortunate
p11273
aVpanic
p11274
aVperjury
p11275
aVfootpath
p11276
aVelia
p11277
aVunjustified
p11278
aVargumentative
p11279
aVcrash
p11280
aVpractice
p11281
aV183
p11282
aVtrap
p11283
aVtray
p11284
aVbentley
p11285
aVregistration
p11286
aVcategory
p11287
aVdictionary
p11288
aVcontrol
p11289
aVsubstantiate
p11290
aVhitherto
p11291
aV185
p11292
aVprobation
p11293
aVnomination
p11294
aVmaqbool
p11295
aVconstituent
p11296
aVtakiveikata
p11297
aVicrmw
p11298
aVexcusable
p11299
aVagency
p11300
aVmesne
p11301
aV99s
p11302
aV99l
p11303
aVholistic
p11304
aVoperational
p11305
aV990
p11306
aV999
p11307
aVgleeson
p11308
aVpenetrate
p11309
aVinstructive
p11310
aVtransferee
p11311
aV032
p11312
aV033
p11313
aV030
p11314
aV031
p11315
aV034
p11316
aVcloser
p11317
aVcomplementary
p11318
aVpanty
p11319
aVclosed
p11320
aVcola
p11321
aVaddis
p11322
aVsafely
p11323
aVwithdrawn
p11324
aVmeli
p11325
aVadverse
p11326
aVissuance
p11327
aVdisturbance
p11328
aVunsigned
p11329
aVsimple
p11330
aVclyde
p11331
aVadoption
p11332
aVknow
p11333
aVcar
p11334
aVsequence
p11335
aVwaqa
p11336
aVdependency
p11337
aVaau0041
p11338
aVmeaningless
p11339
aVet
p11340
aVabhay
p11341
aVgay
p11342
aVpercent
p11343
aVsick
p11344
aVdiscretionary
p11345
a.